     1 00000000                                 [FORMAT "WCOFF"]
     2 00000000                                 [INSTRSET "i486p"]
     3 00000000                                 [OPTIMIZE 1]
     4 00000000                                 [OPTION 1]
     5 00000000                                 [BITS 32]
     6 00000000                                 	EXTERN	_api_getlang
     7 00000000                                 	EXTERN	_api_end
     8 00000000                                 	EXTERN	_api_putstr0
     9 00000000                                 	EXTERN	_s3.2
    10 00000000                                 	EXTERN	_s2.1
    11 00000000                                 	EXTERN	_s1.0
    12 00000000                                 [FILE "chklang.c"]
    13                                          [SECTION .data]
    14 00000000                                 _s1.0:
    15 00000000 93                              	DB	-109
    16 00000001 FA                              	DB	-6
    17 00000002 96                              	DB	-106
    18 00000003 7B                              	DB	123
    19 00000004 8C                              	DB	-116
    20 00000005 EA                              	DB	-22
    21 00000006 83                              	DB	-125
    22 00000007 56                              	DB	86
    23 00000008 83                              	DB	-125
    24 00000009 74                              	DB	116
    25 0000000A 83                              	DB	-125
    26 0000000B 67                              	DB	103
    27 0000000C 4A                              	DB	74
    28 0000000D 49                              	DB	73
    29 0000000E 53                              	DB	83
    30 0000000F 83                              	DB	-125
    31 00000010 82                              	DB	-126
    32 00000011 81                              	DB	-127
    33 00000012 5B                              	DB	91
    34 00000013 83                              	DB	-125
    35 00000014 68                              	DB	104
    36 00000015 0A                              	DB	10
    37 00000016 00                              	DB	0
    38 00000017                                 _s2.1:
    39 00000017 C6                              	DB	-58
    40 00000018 FC                              	DB	-4
    41 00000019 CB                              	DB	-53
    42 0000001A DC                              	DB	-36
    43 0000001B B8                              	DB	-72
    44 0000001C EC                              	DB	-20
    45 0000001D 45                              	DB	69
    46 0000001E 55                              	DB	85
    47 0000001F 43                              	DB	67
    48 00000020 A5                              	DB	-91
    49 00000021 E2                              	DB	-30
    50 00000022 A1                              	DB	-95
    51 00000023 BC                              	DB	-68
    52 00000024 A5                              	DB	-91
    53 00000025 C9                              	DB	-55
    54 00000026 0A                              	DB	10
    55 00000027 00                              	DB	0
    56 00000028                                 _s3.2:
    57 00000028 CE                              	DB	-50
    58 00000029 D2                              	DB	-46
    59 0000002A 20                              	DB	32
    60 0000002B CA                              	DB	-54
    61 0000002C C7                              	DB	-57
    62 0000002D A1                              	DB	-95
    63 0000002E A2                              	DB	-94
    64 0000002F A1                              	DB	-95
    65 00000030 A3                              	DB	-93
    66 00000031 0A                              	DB	10
    67 00000032 00                              	DB	0
    68 00000033 00 00 00 00 00 00 00 00 00      	RESB	9
    69 0000003C                                 LC1:
    70 0000003C D6 D0 CE C4 47 42 32 33 31 32   	DB	0xD6,0xD0,0xCE,0xC4,"GB2312",0x0A,0xCE,0xD2,0xC4,0xDC,0xCD,0xCC,0xCF,0xC2,0xB2,0xA3,0xC1,0xA7,0xB6,0xF8,0xB2,0xBB,0xC9,0xCB,0xC9,0xED,0xCC,0xE5,0x0A,0x00
       00000046 0A CE D2 C4 DC CD CC CF C2 B2 
       00000050 A3 C1 A7 B6 F8 B2 BB C9 CB C9 
       0000005A ED CC E5 0A 00 
    71 0000005F                                 LC2:
    72 0000005F 68 74 74 70 73 3A 2F 2F 77 61   	DB	"https://wallacenews.tk",0x0A,0x00
       00000069 6C 6C 61 63 65 6E 65 77 73 2E 
       00000073 74 6B 0A 00 
    73 00000077                                 LC3:
    74 00000077 F1 D2 B0 A2 D9 EA 00            	DB	0xF1,0xD2,0xB0,0xA2,0xD9,0xEA,0x00
    75 0000007E                                 LC0:
    76 0000007E 45 6E 67 6C 69 73 68 20 41 53   	DB	"English ASCII mode",0x0A,0x00
       00000088 43 49 49 20 6D 6F 64 65 0A 00 
    77                                          [SECTION .text]
    78 00000000                                 	GLOBAL	_HariMain
    79 00000000                                 _HariMain:
    80 00000000 55                              	PUSH	EBP
    81 00000001 89 E5                           	MOV	EBP,ESP
    82 00000003 53                              	PUSH	EBX
    83 00000004 E8 [00000000]                   	CALL	_api_getlang
    84 00000009 89 C3                           	MOV	EBX,EAX
    85 0000000B 85 C0                           	TEST	EAX,EAX
    86 0000000D 0F 84 0000008F                  	JE	L12
    87 00000013                                 L2:
    88 00000013 83 FB 01                        	CMP	EBX,1
    89 00000016 74 7A                           	JE	L13
    90 00000018                                 L3:
    91 00000018 83 FB 02                        	CMP	EBX,2
    92 0000001B 74 68                           	JE	L14
    93 0000001D                                 L4:
    94 0000001D 83 FB 03                        	CMP	EBX,3
    95 00000020 74 09                           	JE	L15
    96 00000022                                 L5:
    97 00000022 8B 5D FC                        	MOV	EBX,DWORD [-4+EBP]
    98 00000025 C9                              	LEAVE
    99 00000026 E9 [00000000]                   	JMP	_api_end
   100 0000002B                                 L15:
   101 0000002B 68 [0000003C]                   	PUSH	LC1
   102 00000030 BB 000000A1                     	MOV	EBX,161
   103 00000035 E8 [00000000]                   	CALL	_api_putstr0
   104 0000003A 68 [0000005F]                   	PUSH	LC2
   105 0000003F E8 [00000000]                   	CALL	_api_putstr0
   106 00000044 68 [00000077]                   	PUSH	LC3
   107 00000049 E8 [00000000]                   	CALL	_api_putstr0
   108 0000004E 68 [00000028]                   	PUSH	_s3.2
   109 00000053 E8 [00000000]                   	CALL	_api_putstr0
   110 00000058 83 C4 10                        	ADD	ESP,16
   111 0000005B                                 L10:
   112 0000005B 88 1D [00000029]                	MOV	BYTE [_s3.2+1],BL
   113 00000061 43                              	INC	EBX
   114 00000062 C6 05 [00000028] A1             	MOV	BYTE [_s3.2],-95
   115 00000069 C6 05 [0000002A] 00             	MOV	BYTE [_s3.2+2],0
   116 00000070 68 [00000028]                   	PUSH	_s3.2
   117 00000075 E8 [00000000]                   	CALL	_api_putstr0
   118 0000007A 81 FB 000000CB                  	CMP	EBX,203
   119 00000080 58                              	POP	EAX
   120 00000081 7E D8                           	JLE	L10
   121 00000083 EB 9D                           	JMP	L5
   122 00000085                                 L14:
   123 00000085 68 [00000017]                   	PUSH	_s2.1
   124 0000008A E8 [00000000]                   	CALL	_api_putstr0
   125 0000008F 5A                              	POP	EDX
   126 00000090 EB 8B                           	JMP	L4
   127 00000092                                 L13:
   128 00000092 68 [00000000]                   	PUSH	_s1.0
   129 00000097 E8 [00000000]                   	CALL	_api_putstr0
   130 0000009C 59                              	POP	ECX
   131 0000009D E9 FFFFFF76                     	JMP	L3
   132 000000A2                                 L12:
   133 000000A2 68 [0000007E]                   	PUSH	LC0
   134 000000A7 E8 [00000000]                   	CALL	_api_putstr0
   135 000000AC 58                              	POP	EAX
   136 000000AD E9 FFFFFF61                     	JMP	L2
