     1 00000000                                 [FORMAT "WCOFF"]
     2 00000000                                 [INSTRSET "i486p"]
     3 00000000                                 [OPTIMIZE 1]
     4 00000000                                 [OPTION 1]
     5 00000000                                 [BITS 32]
     6 00000000                                 	EXTERN	_avoid_sleep
     7 00000000                                 	EXTERN	_sem_wait
     8 00000000                                 	EXTERN	_fifo32_put
     9 00000000                                 	EXTERN	_sem_signal
    10 00000000                                 	EXTERN	_io_hlt
    11 00000000                                 	EXTERN	_fifo32_get
    12 00000000                                 	EXTERN	_sprintf
    13 00000000                                 	EXTERN	_cons_putstr0
    14 00000000                                 	EXTERN	_init_gdtidt
    15 00000000                                 	EXTERN	_init_pic
    16 00000000                                 	EXTERN	_io_sti
    17 00000000                                 	EXTERN	_fifo32_init
    18 00000000                                 	EXTERN	_init_pit
    19 00000000                                 	EXTERN	_init_keyboard
    20 00000000                                 	EXTERN	_enable_mouse
    21 00000000                                 	EXTERN	_io_out8
    22 00000000                                 	EXTERN	_memtest
    23 00000000                                 	EXTERN	_memman_init
    24 00000000                                 	EXTERN	_memman_free
    25 00000000                                 	EXTERN	_init_palette
    26 00000000                                 	EXTERN	_shtctl_init
    27 00000000                                 	EXTERN	_task_init
    28 00000000                                 	EXTERN	_task_run
    29 00000000                                 	EXTERN	_sheet_alloc
    30 00000000                                 	EXTERN	_memman_alloc_4k
    31 00000000                                 	EXTERN	_sheet_setbuf
    32 00000000                                 	EXTERN	_init_screen8
    33 00000000                                 	EXTERN	_init_mouse_cursor8
    34 00000000                                 	EXTERN	_sheet_slide
    35 00000000                                 	EXTERN	_sheet_updown
    36 00000000                                 	EXTERN	_create_task
    37 00000000                                 	EXTERN	_fifo32_status
    38 00000000                                 	EXTERN	_io_cli
    39 00000000                                 	EXTERN	_memman_free_4k
    40 00000000                                 	EXTERN	_sheet_free
    41 00000000                                 	EXTERN	_taskctl
    42 00000000                                 	EXTERN	_mouse_decode
    43 00000000                                 	EXTERN	_asm_end_app
    44 00000000                                 	EXTERN	_wait_KBC_sendready
    45 00000000                                 	EXTERN	_task_sleep
    46 00000000                                 	EXTERN	_change_wtitle8
    47 00000000                                 	EXTERN	_task_alloc
    48 00000000                                 	EXTERN	_console_task
    49 00000000                                 	EXTERN	_make_window8
    50 00000000                                 	EXTERN	_make_textbox8
    51 00000000                                 [FILE "bootpack.c"]
    52                                          [SECTION .text]
    53 00000000                                 	GLOBAL	_producer
    54 00000000                                 _producer:
    55 00000000 55                              	PUSH	EBP
    56 00000001 89 E5                           	MOV	EBP,ESP
    57 00000003 57                              	PUSH	EDI
    58 00000004 56                              	PUSH	ESI
    59 00000005 53                              	PUSH	EBX
    60 00000006 81 EC 00000090                  	SUB	ESP,144
    61 0000000C 8B 5D 08                        	MOV	EBX,DWORD [8+EBP]
    62 0000000F E8 [00000000]                   	CALL	_avoid_sleep
    63 00000014 8B 03                           	MOV	EAX,DWORD [EBX]
    64 00000016 8B 7B 04                        	MOV	EDI,DWORD [4+EBX]
    65 00000019 89 85 FFFFFF70                  	MOV	DWORD [-144+EBP],EAX
    66 0000001F 8B 43 08                        	MOV	EAX,DWORD [8+EBX]
    67 00000022 8B 5B 14                        	MOV	EBX,DWORD [20+EBX]
    68 00000025 89 85 FFFFFF6C                  	MOV	DWORD [-148+EBP],EAX
    69 0000002B 89 9D FFFFFF68                  	MOV	DWORD [-152+EBP],EBX
    70 00000031 BB 00000002                     	MOV	EBX,2
    71 00000036                                 L16:
    72 00000036 BE 00000001                     	MOV	ESI,1
    73 0000003B B9 00000002                     	MOV	ECX,2
    74 00000040 83 FB 03                        	CMP	EBX,3
    75 00000043 7E 13                           	JLE	L9
    76 00000045                                 L13:
    77 00000045 89 D8                           	MOV	EAX,EBX
    78 00000047 99                              	CDQ
    79 00000048 F7 F9                           	IDIV	ECX
    80 0000004A 85 D2                           	TEST	EDX,EDX
    81 0000004C 74 58                           	JE	L21
    82 0000004E 41                              	INC	ECX
    83 0000004F 89 C8                           	MOV	EAX,ECX
    84 00000051 0F AF C1                        	IMUL	EAX,ECX
    85 00000054 39 D8                           	CMP	EAX,EBX
    86 00000056 7E ED                           	JLE	L13
    87 00000058                                 L9:
    88 00000058 89 F0                           	MOV	EAX,ESI
    89 0000005A 84 C0                           	TEST	AL,AL
    90 0000005C 75 01                           	JNE	L14
    91 0000005E 43                              	INC	EBX
    92 0000005F                                 L14:
    93 0000005F 81 FB 003F3F3F                  	CMP	EBX,4144959
    94 00000065 7E 05                           	JLE	L5
    95 00000067 BB 00000002                     	MOV	EBX,2
    96 0000006C                                 L5:
    97 0000006C 89 F0                           	MOV	EAX,ESI
    98 0000006E 84 C0                           	TEST	AL,AL
    99 00000070 74 C4                           	JE	L16
   100 00000072 FF B5 FFFFFF70                  	PUSH	DWORD [-144+EBP]
   101 00000078 E8 [00000000]                   	CALL	_sem_wait
   102 0000007D 57                              	PUSH	EDI
   103 0000007E E8 [00000000]                   	CALL	_sem_wait
   104 00000083 53                              	PUSH	EBX
   105 00000084 FF B5 FFFFFF68                  	PUSH	DWORD [-152+EBP]
   106 0000008A 43                              	INC	EBX
   107 0000008B E8 [00000000]                   	CALL	_fifo32_put
   108 00000090 57                              	PUSH	EDI
   109 00000091 E8 [00000000]                   	CALL	_sem_signal
   110 00000096 FF B5 FFFFFF6C                  	PUSH	DWORD [-148+EBP]
   111 0000009C E8 [00000000]                   	CALL	_sem_signal
   112 000000A1 83 C4 18                        	ADD	ESP,24
   113 000000A4 EB 90                           	JMP	L16
   114 000000A6                                 L21:
   115 000000A6 31 F6                           	XOR	ESI,ESI
   116 000000A8 EB AE                           	JMP	L9
   117                                          [SECTION .data]
   118 00000000                                 LC0:
   119 00000000 63 70 72 6F 63 20 25 64 20 66   	DB	"cproc %d fetched %d",0x0A,0x00
       0000000A 65 74 63 68 65 64 20 25 64 0A 
       00000014 00 
   120                                          [SECTION .text]
   121 000000AA                                 	GLOBAL	_consumer
   122 000000AA                                 _consumer:
   123 000000AA 55                              	PUSH	EBP
   124 000000AB 89 E5                           	MOV	EBP,ESP
   125 000000AD 57                              	PUSH	EDI
   126 000000AE 56                              	PUSH	ESI
   127 000000AF 53                              	PUSH	EBX
   128 000000B0 81 EC 00000094                  	SUB	ESP,148
   129 000000B6 8B 5D 08                        	MOV	EBX,DWORD [8+EBP]
   130 000000B9 E8 [00000000]                   	CALL	_avoid_sleep
   131 000000BE 8B 03                           	MOV	EAX,DWORD [EBX]
   132 000000C0 8B 7B 10                        	MOV	EDI,DWORD [16+EBX]
   133 000000C3 89 85 FFFFFF70                  	MOV	DWORD [-144+EBP],EAX
   134 000000C9 8B 73 18                        	MOV	ESI,DWORD [24+EBX]
   135 000000CC 8B 43 04                        	MOV	EAX,DWORD [4+EBX]
   136 000000CF 89 85 FFFFFF6C                  	MOV	DWORD [-148+EBP],EAX
   137 000000D5 8B 43 08                        	MOV	EAX,DWORD [8+EBX]
   138 000000D8 89 85 FFFFFF68                  	MOV	DWORD [-152+EBP],EAX
   139 000000DE 8B 43 0C                        	MOV	EAX,DWORD [12+EBX]
   140 000000E1 89 85 FFFFFF64                  	MOV	DWORD [-156+EBP],EAX
   141 000000E7 8B 43 14                        	MOV	EAX,DWORD [20+EBX]
   142 000000EA 89 85 FFFFFF60                  	MOV	DWORD [-160+EBP],EAX
   143 000000F0                                 L30:
   144 000000F0 83 BE 000000A4 00               	CMP	DWORD [164+ESI],0
   145 000000F7 75 0E                           	JNE	L32
   146 000000F9                                 L29:
   147 000000F9 E8 [00000000]                   	CALL	_io_hlt
   148 000000FE 83 BE 000000A4 00               	CMP	DWORD [164+ESI],0
   149 00000105 74 F2                           	JE	L29
   150 00000107                                 L32:
   151 00000107 FF B5 FFFFFF68                  	PUSH	DWORD [-152+EBP]
   152 0000010D E8 [00000000]                   	CALL	_sem_wait
   153 00000112 FF B5 FFFFFF6C                  	PUSH	DWORD [-148+EBP]
   154 00000118 E8 [00000000]                   	CALL	_sem_wait
   155 0000011D FF B5 FFFFFF60                  	PUSH	DWORD [-160+EBP]
   156 00000123 E8 [00000000]                   	CALL	_fifo32_get
   157 00000128 FF B5 FFFFFF6C                  	PUSH	DWORD [-148+EBP]
   158 0000012E 89 C3                           	MOV	EBX,EAX
   159 00000130 E8 [00000000]                   	CALL	_sem_signal
   160 00000135 FF B5 FFFFFF70                  	PUSH	DWORD [-144+EBP]
   161 0000013B E8 [00000000]                   	CALL	_sem_signal
   162 00000140 53                              	PUSH	EBX
   163 00000141 FF B5 FFFFFF64                  	PUSH	DWORD [-156+EBP]
   164 00000147 68 [00000000]                   	PUSH	LC0
   165 0000014C 8D 9D FFFFFF74                  	LEA	EBX,DWORD [-140+EBP]
   166 00000152 53                              	PUSH	EBX
   167 00000153 E8 [00000000]                   	CALL	_sprintf
   168 00000158 83 C4 24                        	ADD	ESP,36
   169 0000015B 57                              	PUSH	EDI
   170 0000015C E8 [00000000]                   	CALL	_sem_wait
   171 00000161 53                              	PUSH	EBX
   172 00000162 FF B6 000000A4                  	PUSH	DWORD [164+ESI]
   173 00000168 E8 [00000000]                   	CALL	_cons_putstr0
   174 0000016D 57                              	PUSH	EDI
   175 0000016E E8 [00000000]                   	CALL	_sem_signal
   176 00000173 83 C4 10                        	ADD	ESP,16
   177 00000176 E9 FFFFFF75                     	JMP	L30
   178                                          [SECTION .data]
   179 00000015                                 _keytable0.0:
   180 00000015 00                              	DB	0
   181 00000016 00                              	DB	0
   182 00000017 31                              	DB	49
   183 00000018 32                              	DB	50
   184 00000019 33                              	DB	51
   185 0000001A 34                              	DB	52
   186 0000001B 35                              	DB	53
   187 0000001C 36                              	DB	54
   188 0000001D 37                              	DB	55
   189 0000001E 38                              	DB	56
   190 0000001F 39                              	DB	57
   191 00000020 30                              	DB	48
   192 00000021 2D                              	DB	45
   193 00000022 5E                              	DB	94
   194 00000023 08                              	DB	8
   195 00000024 00                              	DB	0
   196 00000025 51                              	DB	81
   197 00000026 57                              	DB	87
   198 00000027 45                              	DB	69
   199 00000028 52                              	DB	82
   200 00000029 54                              	DB	84
   201 0000002A 59                              	DB	89
   202 0000002B 55                              	DB	85
   203 0000002C 49                              	DB	73
   204 0000002D 4F                              	DB	79
   205 0000002E 50                              	DB	80
   206 0000002F 40                              	DB	64
   207 00000030 5B                              	DB	91
   208 00000031 0A                              	DB	10
   209 00000032 00                              	DB	0
   210 00000033 41                              	DB	65
   211 00000034 53                              	DB	83
   212 00000035 44                              	DB	68
   213 00000036 46                              	DB	70
   214 00000037 47                              	DB	71
   215 00000038 48                              	DB	72
   216 00000039 4A                              	DB	74
   217 0000003A 4B                              	DB	75
   218 0000003B 4C                              	DB	76
   219 0000003C 3B                              	DB	59
   220 0000003D 3A                              	DB	58
   221 0000003E 00                              	DB	0
   222 0000003F 00                              	DB	0
   223 00000040 5D                              	DB	93
   224 00000041 5A                              	DB	90
   225 00000042 58                              	DB	88
   226 00000043 43                              	DB	67
   227 00000044 56                              	DB	86
   228 00000045 42                              	DB	66
   229 00000046 4E                              	DB	78
   230 00000047 4D                              	DB	77
   231 00000048 2C                              	DB	44
   232 00000049 2E                              	DB	46
   233 0000004A 2F                              	DB	47
   234 0000004B 00                              	DB	0
   235 0000004C 2A                              	DB	42
   236 0000004D 00                              	DB	0
   237 0000004E 20                              	DB	32
   238 0000004F 00                              	DB	0
   239 00000050 00                              	DB	0
   240 00000051 00                              	DB	0
   241 00000052 00                              	DB	0
   242 00000053 00                              	DB	0
   243 00000054 00                              	DB	0
   244 00000055 00                              	DB	0
   245 00000056 00                              	DB	0
   246 00000057 00                              	DB	0
   247 00000058 00                              	DB	0
   248 00000059 00                              	DB	0
   249 0000005A 00                              	DB	0
   250 0000005B 00                              	DB	0
   251 0000005C 37                              	DB	55
   252 0000005D 38                              	DB	56
   253 0000005E 39                              	DB	57
   254 0000005F 2D                              	DB	45
   255 00000060 34                              	DB	52
   256 00000061 35                              	DB	53
   257 00000062 36                              	DB	54
   258 00000063 2B                              	DB	43
   259 00000064 31                              	DB	49
   260 00000065 32                              	DB	50
   261 00000066 33                              	DB	51
   262 00000067 30                              	DB	48
   263 00000068 2E                              	DB	46
   264 00000069 00                              	DB	0
   265 0000006A 00                              	DB	0
   266 0000006B 00                              	DB	0
   267 0000006C 00                              	DB	0
   268 0000006D 00                              	DB	0
   269 0000006E 00                              	DB	0
   270 0000006F 00                              	DB	0
   271 00000070 00                              	DB	0
   272 00000071 00                              	DB	0
   273 00000072 00                              	DB	0
   274 00000073 00                              	DB	0
   275 00000074 00                              	DB	0
   276 00000075 00                              	DB	0
   277 00000076 00                              	DB	0
   278 00000077 00                              	DB	0
   279 00000078 00                              	DB	0
   280 00000079 00                              	DB	0
   281 0000007A 00                              	DB	0
   282 0000007B 00                              	DB	0
   283 0000007C 00                              	DB	0
   284 0000007D 00                              	DB	0
   285 0000007E 00                              	DB	0
   286 0000007F 00                              	DB	0
   287 00000080 00                              	DB	0
   288 00000081 00                              	DB	0
   289 00000082 00                              	DB	0
   290 00000083 00                              	DB	0
   291 00000084 00                              	DB	0
   292 00000085 00                              	DB	0
   293 00000086 00                              	DB	0
   294 00000087 00                              	DB	0
   295 00000088 5C                              	DB	92
   296 00000089 00                              	DB	0
   297 0000008A 00                              	DB	0
   298 0000008B 00                              	DB	0
   299 0000008C 00                              	DB	0
   300 0000008D 00                              	DB	0
   301 0000008E 00                              	DB	0
   302 0000008F 00                              	DB	0
   303 00000090 00                              	DB	0
   304 00000091 00                              	DB	0
   305 00000092 5C                              	DB	92
   306 00000093 00                              	DB	0
   307 00000094 00                              	DB	0
   308 00000095                                 _keytable1.1:
   309 00000095 00                              	DB	0
   310 00000096 00                              	DB	0
   311 00000097 21                              	DB	33
   312 00000098 22                              	DB	34
   313 00000099 23                              	DB	35
   314 0000009A 24                              	DB	36
   315 0000009B 25                              	DB	37
   316 0000009C 26                              	DB	38
   317 0000009D 27                              	DB	39
   318 0000009E 28                              	DB	40
   319 0000009F 29                              	DB	41
   320 000000A0 7E                              	DB	126
   321 000000A1 3D                              	DB	61
   322 000000A2 7E                              	DB	126
   323 000000A3 08                              	DB	8
   324 000000A4 00                              	DB	0
   325 000000A5 51                              	DB	81
   326 000000A6 57                              	DB	87
   327 000000A7 45                              	DB	69
   328 000000A8 52                              	DB	82
   329 000000A9 54                              	DB	84
   330 000000AA 59                              	DB	89
   331 000000AB 55                              	DB	85
   332 000000AC 49                              	DB	73
   333 000000AD 4F                              	DB	79
   334 000000AE 50                              	DB	80
   335 000000AF 60                              	DB	96
   336 000000B0 7B                              	DB	123
   337 000000B1 0A                              	DB	10
   338 000000B2 00                              	DB	0
   339 000000B3 41                              	DB	65
   340 000000B4 53                              	DB	83
   341 000000B5 44                              	DB	68
   342 000000B6 46                              	DB	70
   343 000000B7 47                              	DB	71
   344 000000B8 48                              	DB	72
   345 000000B9 4A                              	DB	74
   346 000000BA 4B                              	DB	75
   347 000000BB 4C                              	DB	76
   348 000000BC 2B                              	DB	43
   349 000000BD 2A                              	DB	42
   350 000000BE 00                              	DB	0
   351 000000BF 00                              	DB	0
   352 000000C0 7D                              	DB	125
   353 000000C1 5A                              	DB	90
   354 000000C2 58                              	DB	88
   355 000000C3 43                              	DB	67
   356 000000C4 56                              	DB	86
   357 000000C5 42                              	DB	66
   358 000000C6 4E                              	DB	78
   359 000000C7 4D                              	DB	77
   360 000000C8 3C                              	DB	60
   361 000000C9 3E                              	DB	62
   362 000000CA 3F                              	DB	63
   363 000000CB 00                              	DB	0
   364 000000CC 2A                              	DB	42
   365 000000CD 00                              	DB	0
   366 000000CE 20                              	DB	32
   367 000000CF 00                              	DB	0
   368 000000D0 00                              	DB	0
   369 000000D1 00                              	DB	0
   370 000000D2 00                              	DB	0
   371 000000D3 00                              	DB	0
   372 000000D4 00                              	DB	0
   373 000000D5 00                              	DB	0
   374 000000D6 00                              	DB	0
   375 000000D7 00                              	DB	0
   376 000000D8 00                              	DB	0
   377 000000D9 00                              	DB	0
   378 000000DA 00                              	DB	0
   379 000000DB 00                              	DB	0
   380 000000DC 37                              	DB	55
   381 000000DD 38                              	DB	56
   382 000000DE 39                              	DB	57
   383 000000DF 2D                              	DB	45
   384 000000E0 34                              	DB	52
   385 000000E1 35                              	DB	53
   386 000000E2 36                              	DB	54
   387 000000E3 2B                              	DB	43
   388 000000E4 31                              	DB	49
   389 000000E5 32                              	DB	50
   390 000000E6 33                              	DB	51
   391 000000E7 30                              	DB	48
   392 000000E8 2E                              	DB	46
   393 000000E9 00                              	DB	0
   394 000000EA 00                              	DB	0
   395 000000EB 00                              	DB	0
   396 000000EC 00                              	DB	0
   397 000000ED 00                              	DB	0
   398 000000EE 00                              	DB	0
   399 000000EF 00                              	DB	0
   400 000000F0 00                              	DB	0
   401 000000F1 00                              	DB	0
   402 000000F2 00                              	DB	0
   403 000000F3 00                              	DB	0
   404 000000F4 00                              	DB	0
   405 000000F5 00                              	DB	0
   406 000000F6 00                              	DB	0
   407 000000F7 00                              	DB	0
   408 000000F8 00                              	DB	0
   409 000000F9 00                              	DB	0
   410 000000FA 00                              	DB	0
   411 000000FB 00                              	DB	0
   412 000000FC 00                              	DB	0
   413 000000FD 00                              	DB	0
   414 000000FE 00                              	DB	0
   415 000000FF 00                              	DB	0
   416 00000100 00                              	DB	0
   417 00000101 00                              	DB	0
   418 00000102 00                              	DB	0
   419 00000103 00                              	DB	0
   420 00000104 00                              	DB	0
   421 00000105 00                              	DB	0
   422 00000106 00                              	DB	0
   423 00000107 00                              	DB	0
   424 00000108 5F                              	DB	95
   425 00000109 00                              	DB	0
   426 0000010A 00                              	DB	0
   427 0000010B 00                              	DB	0
   428 0000010C 00                              	DB	0
   429 0000010D 00                              	DB	0
   430 0000010E 00                              	DB	0
   431 0000010F 00                              	DB	0
   432 00000110 00                              	DB	0
   433 00000111 00                              	DB	0
   434 00000112 7C                              	DB	124
   435 00000113 00                              	DB	0
   436 00000114 00                              	DB	0
   437 00000115                                 LC1:
   438 00000115 74 68 69 73 20 69 73 20 61 20   	DB	"this is a console for debug output",0x0A,0x00
       0000011F 63 6F 6E 73 6F 6C 65 20 66 6F 
       00000129 72 20 64 65 62 75 67 20 6F 75 
       00000133 74 70 75 74 0A 00 
   439 00000139                                 LC3:
   440 00000139 0A 42 72 65 61 6B 28 6D 6F 75   	DB	0x0A,"Break(mouse) :",0x0A,0x00
       00000143 73 65 29 20 3A 0A 00 
   441 0000014A                                 LC2:
   442 0000014A 0A 42 72 65 61 6B 28 6B 65 79   	DB	0x0A,"Break(key) :",0x0A,0x00
       00000154 29 20 3A 0A 00 
   443                                          [SECTION .text]
   444 0000017B                                 	GLOBAL	_HariMain
   445 0000017B                                 _HariMain:
   446 0000017B 55                              	PUSH	EBP
   447 0000017C 89 E5                           	MOV	EBP,ESP
   448 0000017E 57                              	PUSH	EDI
   449 0000017F 56                              	PUSH	ESI
   450 00000180 53                              	PUSH	EBX
   451 00000181 8D 5D A4                        	LEA	EBX,DWORD [-92+EBP]
   452 00000184 81 EC 00000778                  	SUB	ESP,1912
   453 0000018A C7 85 FFFFF8D4 FFFFFFFF         	MOV	DWORD [-1836+EBP],-1
   454 00000194 C7 85 FFFFF8D0 00000000         	MOV	DWORD [-1840+EBP],0
   455 0000019E C7 85 FFFFF8CC 7FFFFFFF         	MOV	DWORD [-1844+EBP],2147483647
   456 000001A8 C7 85 FFFFF8C8 00000000         	MOV	DWORD [-1848+EBP],0
   457 000001B2 C7 85 FFFFF8B8 00000000         	MOV	DWORD [-1864+EBP],0
   458 000001BC A0 00000FF1                     	MOV	AL,BYTE [4081]
   459 000001C1 C0 F8 04                        	SAR	AL,4
   460 000001C4 89 C2                           	MOV	EDX,EAX
   461 000001C6 83 E2 07                        	AND	EDX,7
   462 000001C9 89 95 FFFFF8B4                  	MOV	DWORD [-1868+EBP],EDX
   463 000001CF C7 85 FFFFF8B0 FFFFFFFF         	MOV	DWORD [-1872+EBP],-1
   464 000001D9 C7 85 FFFFF8AC FFFFFFFF         	MOV	DWORD [-1876+EBP],-1
   465 000001E3 C7 85 FFFFF8A8 FFFFFFFF         	MOV	DWORD [-1880+EBP],-1
   466 000001ED C7 85 FFFFF8A4 00000000         	MOV	DWORD [-1884+EBP],0
   467 000001F7 C7 85 FFFFF8A0 00000000         	MOV	DWORD [-1888+EBP],0
   468 00000201 E8 [00000000]                   	CALL	_init_gdtidt
   469 00000206 E8 [00000000]                   	CALL	_init_pic
   470 0000020B E8 [00000000]                   	CALL	_io_sti
   471 00000210 8D 85 FFFFFD84                  	LEA	EAX,DWORD [-636+EBP]
   472 00000216 6A 00                           	PUSH	0
   473 00000218 50                              	PUSH	EAX
   474 00000219 68 00000080                     	PUSH	128
   475 0000021E 53                              	PUSH	EBX
   476 0000021F E8 [00000000]                   	CALL	_fifo32_init
   477 00000224 89 1D 00000FEC                  	MOV	DWORD [4076],EBX
   478 0000022A E8 [00000000]                   	CALL	_init_pit
   479 0000022F 68 00000100                     	PUSH	256
   480 00000234 53                              	PUSH	EBX
   481 00000235 E8 [00000000]                   	CALL	_init_keyboard
   482 0000023A 8D 85 FFFFFCF4                  	LEA	EAX,DWORD [-780+EBP]
   483 00000240 50                              	PUSH	EAX
   484 00000241 68 00000200                     	PUSH	512
   485 00000246 53                              	PUSH	EBX
   486 00000247 E8 [00000000]                   	CALL	_enable_mouse
   487 0000024C 83 C4 24                        	ADD	ESP,36
   488 0000024F 68 000000F8                     	PUSH	248
   489 00000254 6A 21                           	PUSH	33
   490 00000256 E8 [00000000]                   	CALL	_io_out8
   491 0000025B 68 000000EF                     	PUSH	239
   492 00000260 68 000000A1                     	PUSH	161
   493 00000265 E8 [00000000]                   	CALL	_io_out8
   494 0000026A 8D 4D 84                        	LEA	ECX,DWORD [-124+EBP]
   495 0000026D 6A 00                           	PUSH	0
   496 0000026F 8D 85 FFFFFD04                  	LEA	EAX,DWORD [-764+EBP]
   497 00000275 50                              	PUSH	EAX
   498 00000276 6A 20                           	PUSH	32
   499 00000278 51                              	PUSH	ECX
   500 00000279 E8 [00000000]                   	CALL	_fifo32_init
   501 0000027E 83 C4 20                        	ADD	ESP,32
   502 00000281 68 BFFFFFFF                     	PUSH	-1073741825
   503 00000286 68 00400000                     	PUSH	4194304
   504 0000028B E8 [00000000]                   	CALL	_memtest
   505 00000290 68 003C0000                     	PUSH	3932160
   506 00000295 89 85 FFFFF8C4                  	MOV	DWORD [-1852+EBP],EAX
   507 0000029B E8 [00000000]                   	CALL	_memman_init
   508 000002A0 68 0009E000                     	PUSH	647168
   509 000002A5 68 00001000                     	PUSH	4096
   510 000002AA 68 003C0000                     	PUSH	3932160
   511 000002AF E8 [00000000]                   	CALL	_memman_free
   512 000002B4 8B 85 FFFFF8C4                  	MOV	EAX,DWORD [-1852+EBP]
   513 000002BA 2D 00400000                     	SUB	EAX,4194304
   514 000002BF 50                              	PUSH	EAX
   515 000002C0 68 00400000                     	PUSH	4194304
   516 000002C5 68 003C0000                     	PUSH	3932160
   517 000002CA E8 [00000000]                   	CALL	_memman_free
   518 000002CF 83 C4 24                        	ADD	ESP,36
   519 000002D2 E8 [00000000]                   	CALL	_init_palette
   520 000002D7 0F BF 05 00000FF6               	MOVSX	EAX,WORD [4086]
   521 000002DE 50                              	PUSH	EAX
   522 000002DF 0F BF 05 00000FF4               	MOVSX	EAX,WORD [4084]
   523 000002E6 50                              	PUSH	EAX
   524 000002E7 FF 35 00000FF8                  	PUSH	DWORD [4088]
   525 000002ED 68 003C0000                     	PUSH	3932160
   526 000002F2 E8 [00000000]                   	CALL	_shtctl_init
   527 000002F7 68 003C0000                     	PUSH	3932160
   528 000002FC 89 85 FFFFF8E0                  	MOV	DWORD [-1824+EBP],EAX
   529 00000302 E8 [00000000]                   	CALL	_task_init
   530 00000307 6A 02                           	PUSH	2
   531 00000309 6A 01                           	PUSH	1
   532 0000030B 89 85 FFFFF8BC                  	MOV	DWORD [-1860+EBP],EAX
   533 00000311 50                              	PUSH	EAX
   534 00000312 89 45 BC                        	MOV	DWORD [-68+EBP],EAX
   535 00000315 E8 [00000000]                   	CALL	_task_run
   536 0000031A 83 C4 20                        	ADD	ESP,32
   537 0000031D 8B BD FFFFF8E0                  	MOV	EDI,DWORD [-1824+EBP]
   538 00000323 89 3D 00000FE4                  	MOV	DWORD [4068],EDI
   539 00000329 57                              	PUSH	EDI
   540 0000032A E8 [00000000]                   	CALL	_sheet_alloc
   541 0000032F 89 C6                           	MOV	ESI,EAX
   542 00000331 0F BF 15 00000FF6               	MOVSX	EDX,WORD [4086]
   543 00000338 0F BF 05 00000FF4               	MOVSX	EAX,WORD [4084]
   544 0000033F 0F AF C2                        	IMUL	EAX,EDX
   545 00000342 50                              	PUSH	EAX
   546 00000343 68 003C0000                     	PUSH	3932160
   547 00000348 E8 [00000000]                   	CALL	_memman_alloc_4k
   548 0000034D 6A FF                           	PUSH	-1
   549 0000034F 89 C3                           	MOV	EBX,EAX
   550 00000351 0F BF 05 00000FF6               	MOVSX	EAX,WORD [4086]
   551 00000358 50                              	PUSH	EAX
   552 00000359 0F BF 05 00000FF4               	MOVSX	EAX,WORD [4084]
   553 00000360 50                              	PUSH	EAX
   554 00000361 53                              	PUSH	EBX
   555 00000362 56                              	PUSH	ESI
   556 00000363 E8 [00000000]                   	CALL	_sheet_setbuf
   557 00000368 83 C4 20                        	ADD	ESP,32
   558 0000036B 0F BF 05 00000FF6               	MOVSX	EAX,WORD [4086]
   559 00000372 50                              	PUSH	EAX
   560 00000373 0F BF 05 00000FF4               	MOVSX	EAX,WORD [4084]
   561 0000037A 50                              	PUSH	EAX
   562 0000037B 53                              	PUSH	EBX
   563 0000037C 8D 9D FFFFFBF4                  	LEA	EBX,DWORD [-1036+EBP]
   564 00000382 E8 [00000000]                   	CALL	_init_screen8
   565 00000387 FF B5 FFFFF8C4                  	PUSH	DWORD [-1852+EBP]
   566 0000038D 57                              	PUSH	EDI
   567 0000038E E8 00000B90                     	CALL	_open_console
   568 00000393 57                              	PUSH	EDI
   569 00000394 89 85 FFFFF87C                  	MOV	DWORD [-1924+EBP],EAX
   570 0000039A E8 [00000000]                   	CALL	_sheet_alloc
   571 0000039F 6A 63                           	PUSH	99
   572 000003A1 6A 10                           	PUSH	16
   573 000003A3 89 85 FFFFF8C0                  	MOV	DWORD [-1856+EBP],EAX
   574 000003A9 6A 10                           	PUSH	16
   575 000003AB 53                              	PUSH	EBX
   576 000003AC 50                              	PUSH	EAX
   577 000003AD E8 [00000000]                   	CALL	_sheet_setbuf
   578 000003B2 83 C4 2C                        	ADD	ESP,44
   579 000003B5 6A 63                           	PUSH	99
   580 000003B7 53                              	PUSH	EBX
   581 000003B8 BB 00000002                     	MOV	EBX,2
   582 000003BD E8 [00000000]                   	CALL	_init_mouse_cursor8
   583 000003C2 0F BF 05 00000FF4               	MOVSX	EAX,WORD [4084]
   584 000003C9 8D 48 F0                        	LEA	ECX,DWORD [-16+EAX]
   585 000003CC 89 C8                           	MOV	EAX,ECX
   586 000003CE 99                              	CDQ
   587 000003CF F7 FB                           	IDIV	EBX
   588 000003D1 89 85 FFFFF8DC                  	MOV	DWORD [-1828+EBP],EAX
   589 000003D7 0F BF 05 00000FF6               	MOVSX	EAX,WORD [4086]
   590 000003DE 6A 00                           	PUSH	0
   591 000003E0 8D 48 D4                        	LEA	ECX,DWORD [-44+EAX]
   592 000003E3 6A 00                           	PUSH	0
   593 000003E5 89 C8                           	MOV	EAX,ECX
   594 000003E7 56                              	PUSH	ESI
   595 000003E8 99                              	CDQ
   596 000003E9 F7 FB                           	IDIV	EBX
   597 000003EB 89 85 FFFFF8D8                  	MOV	DWORD [-1832+EBP],EAX
   598 000003F1 8D 9D FFFFF8F4                  	LEA	EBX,DWORD [-1804+EBP]
   599 000003F7 E8 [00000000]                   	CALL	_sheet_slide
   600 000003FC 6A 04                           	PUSH	4
   601 000003FE 6A 20                           	PUSH	32
   602 00000400 FF B5 FFFFF87C                  	PUSH	DWORD [-1924+EBP]
   603 00000406 E8 [00000000]                   	CALL	_sheet_slide
   604 0000040B 83 C4 20                        	ADD	ESP,32
   605 0000040E FF B5 FFFFF8D8                  	PUSH	DWORD [-1832+EBP]
   606 00000414 FF B5 FFFFF8DC                  	PUSH	DWORD [-1828+EBP]
   607 0000041A FF B5 FFFFF8C0                  	PUSH	DWORD [-1856+EBP]
   608 00000420 E8 [00000000]                   	CALL	_sheet_slide
   609 00000425 6A 00                           	PUSH	0
   610 00000427 56                              	PUSH	ESI
   611 00000428 8D B5 FFFFFBD4                  	LEA	ESI,DWORD [-1068+EBP]
   612 0000042E E8 [00000000]                   	CALL	_sheet_updown
   613 00000433 6A 01                           	PUSH	1
   614 00000435 FF B5 FFFFF87C                  	PUSH	DWORD [-1924+EBP]
   615 0000043B E8 [00000000]                   	CALL	_sheet_updown
   616 00000440 6A 02                           	PUSH	2
   617 00000442 FF B5 FFFFF8C0                  	PUSH	DWORD [-1856+EBP]
   618 00000448 E8 [00000000]                   	CALL	_sheet_updown
   619 0000044D 83 C4 24                        	ADD	ESP,36
   620 00000450 FF B5 FFFFF87C                  	PUSH	DWORD [-1924+EBP]
   621 00000456 E8 000009F4                     	CALL	_keywin_on
   622 0000045B 8D 55 84                        	LEA	EDX,DWORD [-124+EBP]
   623 0000045E 68 000000ED                     	PUSH	237
   624 00000463 52                              	PUSH	EDX
   625 00000464 E8 [00000000]                   	CALL	_fifo32_put
   626 00000469 8D 4D 84                        	LEA	ECX,DWORD [-124+EBP]
   627 0000046C FF B5 FFFFF8B4                  	PUSH	DWORD [-1868+EBP]
   628 00000472 51                              	PUSH	ECX
   629 00000473 E8 [00000000]                   	CALL	_fifo32_put
   630 00000478 8D 85 FFFFFB14                  	LEA	EAX,DWORD [-1260+EBP]
   631 0000047E 68 [00000115]                   	PUSH	LC1
   632 00000483 50                              	PUSH	EAX
   633 00000484 C6 85 FFFFF897 01               	MOV	BYTE [-1897+EBP],1
   634 0000048B E8 [00000000]                   	CALL	_sprintf
   635 00000490 FF B5 FFFFF8C4                  	PUSH	DWORD [-1852+EBP]
   636 00000496 57                              	PUSH	EDI
   637 00000497 E8 00000A87                     	CALL	_open_console
   638 0000049C 83 C4 24                        	ADD	ESP,36
   639 0000049F 6A 04                           	PUSH	4
   640 000004A1 89 85 FFFFF898                  	MOV	DWORD [-1896+EBP],EAX
   641 000004A7 6A 40                           	PUSH	64
   642 000004A9 50                              	PUSH	EAX
   643 000004AA E8 [00000000]                   	CALL	_sheet_slide
   644 000004AF FF 77 10                        	PUSH	DWORD [16+EDI]
   645 000004B2 FF B5 FFFFF898                  	PUSH	DWORD [-1896+EBP]
   646 000004B8 E8 [00000000]                   	CALL	_sheet_updown
   647 000004BD 8D 85 FFFFF914                  	LEA	EAX,DWORD [-1772+EBP]
   648 000004C3 6A 00                           	PUSH	0
   649 000004C5 50                              	PUSH	EAX
   650 000004C6 6A 08                           	PUSH	8
   651 000004C8 53                              	PUSH	EBX
   652 000004C9 E8 [00000000]                   	CALL	_fifo32_init
   653 000004CE 83 C4 24                        	ADD	ESP,36
   654 000004D1 8D 85 FFFFF8F0                  	LEA	EAX,DWORD [-1808+EBP]
   655 000004D7 8B BD FFFFF87C                  	MOV	EDI,DWORD [-1924+EBP]
   656 000004DD 89 85 FFFFFBD4                  	MOV	DWORD [-1068+EBP],EAX
   657 000004E3 BA 00000007                     	MOV	EDX,7
   658 000004E8 8D 85 FFFFF8EC                  	LEA	EAX,DWORD [-1812+EBP]
   659 000004EE 89 9D FFFFFBE8                  	MOV	DWORD [-1048+EBP],EBX
   660 000004F4 89 85 FFFFFBDC                  	MOV	DWORD [-1060+EBP],EAX
   661 000004FA 89 D1                           	MOV	ECX,EDX
   662 000004FC 8D 85 FFFFF8E8                  	LEA	EAX,DWORD [-1816+EBP]
   663 00000502 89 85 FFFFFBD8                  	MOV	DWORD [-1064+EBP],EAX
   664 00000508 8B 47 24                        	MOV	EAX,DWORD [36+EDI]
   665 0000050B 89 85 FFFFFBEC                  	MOV	DWORD [-1044+EBP],EAX
   666 00000511 8D 85 FFFFF8E4                  	LEA	EAX,DWORD [-1820+EBP]
   667 00000517 FC                              	CLD
   668 00000518 89 85 FFFFFBE4                  	MOV	DWORD [-1052+EBP],EAX
   669 0000051E 8D 85 FFFFFB94                  	LEA	EAX,DWORD [-1132+EBP]
   670 00000524 C7 85 FFFFF8F0 00000008         	MOV	DWORD [-1808+EBP],8
   671 0000052E C7 85 FFFFF8E8 00000001         	MOV	DWORD [-1816+EBP],1
   672 00000538 C7 85 FFFFF8EC 00000000         	MOV	DWORD [-1812+EBP],0
   673 00000542 C7 85 FFFFF8E4 00000001         	MOV	DWORD [-1820+EBP],1
   674 0000054C 89 C7                           	MOV	EDI,EAX
   675 0000054E 89 85 FFFFF88C                  	MOV	DWORD [-1908+EBP],EAX
   676 00000554 F3                              	REP
   677 00000555 A5                              	MOVSD
   678 00000556 8D 85 FFFFFBB4                  	LEA	EAX,DWORD [-1100+EBP]
   679 0000055C 89 D1                           	MOV	ECX,EDX
   680 0000055E 89 C7                           	MOV	EDI,EAX
   681 00000560 8D B5 FFFFFB94                  	LEA	ESI,DWORD [-1132+EBP]
   682 00000566 F3                              	REP
   683 00000567 A5                              	MOVSD
   684 00000568 8B 95 FFFFF898                  	MOV	EDX,DWORD [-1896+EBP]
   685 0000056E 89 85 FFFFF884                  	MOV	DWORD [-1916+EBP],EAX
   686 00000574 C7 85 FFFFFBC0 00000001         	MOV	DWORD [-1088+EBP],1
   687 0000057E 8B 42 24                        	MOV	EAX,DWORD [36+EDX]
   688 00000581 89 85 FFFFFBCC                  	MOV	DWORD [-1076+EBP],EAX
   689 00000587 89 85 FFFFFBAC                  	MOV	DWORD [-1108+EBP],EAX
   690 0000058D 8D 85 FFFFFBD4                  	LEA	EAX,DWORD [-1068+EBP]
   691 00000593 50                              	PUSH	EAX
   692 00000594 68 [00000000]                   	PUSH	_producer
   693 00000599 68 003C0000                     	PUSH	3932160
   694 0000059E C7 85 FFFFFBA0 00000002         	MOV	DWORD [-1120+EBP],2
   695 000005A8 E8 [00000000]                   	CALL	_create_task
   696 000005AD 89 85 FFFFF890                  	MOV	DWORD [-1904+EBP],EAX
   697 000005B3 8D 85 FFFFFBB4                  	LEA	EAX,DWORD [-1100+EBP]
   698 000005B9 50                              	PUSH	EAX
   699 000005BA 68 [000000AA]                   	PUSH	_consumer
   700 000005BF 68 003C0000                     	PUSH	3932160
   701 000005C4 E8 [00000000]                   	CALL	_create_task
   702 000005C9 89 C6                           	MOV	ESI,EAX
   703 000005CB 8D 85 FFFFFB94                  	LEA	EAX,DWORD [-1132+EBP]
   704 000005D1 50                              	PUSH	EAX
   705 000005D2 68 [000000AA]                   	PUSH	_consumer
   706 000005D7 68 003C0000                     	PUSH	3932160
   707 000005DC E8 [00000000]                   	CALL	_create_task
   708 000005E1 83 C4 24                        	ADD	ESP,36
   709 000005E4 89 C3                           	MOV	EBX,EAX
   710 000005E6 6A 00                           	PUSH	0
   711 000005E8 6A 02                           	PUSH	2
   712 000005EA FF B5 FFFFF890                  	PUSH	DWORD [-1904+EBP]
   713 000005F0 E8 [00000000]                   	CALL	_task_run
   714 000005F5 6A 00                           	PUSH	0
   715 000005F7 6A 02                           	PUSH	2
   716 000005F9 56                              	PUSH	ESI
   717 000005FA E8 [00000000]                   	CALL	_task_run
   718 000005FF 6A 00                           	PUSH	0
   719 00000601 6A 02                           	PUSH	2
   720 00000603 53                              	PUSH	EBX
   721 00000604 E8 [00000000]                   	CALL	_task_run
   722 00000609 83 C4 24                        	ADD	ESP,36
   723 0000060C                                 L34:
   724 0000060C 80 BD FFFFF897 00               	CMP	BYTE [-1897+EBP],0
   725 00000613 74 30                           	JE	L37
   726 00000615 8B 8D FFFFF898                  	MOV	ECX,DWORD [-1896+EBP]
   727 0000061B 8B 41 24                        	MOV	EAX,DWORD [36+ECX]
   728 0000061E 83 B8 000000A4 00               	CMP	DWORD [164+EAX],0
   729 00000625 74 1E                           	JE	L37
   730 00000627 8D 85 FFFFFB14                  	LEA	EAX,DWORD [-1260+EBP]
   731 0000062D 50                              	PUSH	EAX
   732 0000062E 8B 41 24                        	MOV	EAX,DWORD [36+ECX]
   733 00000631 C6 85 FFFFF897 00               	MOV	BYTE [-1897+EBP],0
   734 00000638 FF B0 000000A4                  	PUSH	DWORD [164+EAX]
   735 0000063E E8 [00000000]                   	CALL	_cons_putstr0
   736 00000643 58                              	POP	EAX
   737 00000644 5A                              	POP	EDX
   738 00000645                                 L37:
   739 00000645 8D 5D 84                        	LEA	EBX,DWORD [-124+EBP]
   740 00000648 53                              	PUSH	EBX
   741 00000649 E8 [00000000]                   	CALL	_fifo32_status
   742 0000064E 5F                              	POP	EDI
   743 0000064F 85 C0                           	TEST	EAX,EAX
   744 00000651 7E 0D                           	JLE	L38
   745 00000653 83 BD FFFFF8B0 00               	CMP	DWORD [-1872+EBP],0
   746 0000065A 0F 88 0000079B                  	JS	L112
   747 00000660                                 L38:
   748 00000660 8D 5D A4                        	LEA	EBX,DWORD [-92+EBP]
   749 00000663 E8 [00000000]                   	CALL	_io_cli
   750 00000668 53                              	PUSH	EBX
   751 00000669 E8 [00000000]                   	CALL	_fifo32_status
   752 0000066E 5E                              	POP	ESI
   753 0000066F 85 C0                           	TEST	EAX,EAX
   754 00000671 0F 84 00000725                  	JE	L113
   755 00000677 53                              	PUSH	EBX
   756 00000678 E8 [00000000]                   	CALL	_fifo32_get
   757 0000067D 89 C6                           	MOV	ESI,EAX
   758 0000067F E8 [00000000]                   	CALL	_io_sti
   759 00000684 5B                              	POP	EBX
   760 00000685 83 BD FFFFF87C 00               	CMP	DWORD [-1924+EBP],0
   761 0000068C 74 3B                           	JE	L45
   762 0000068E 8B 85 FFFFF87C                  	MOV	EAX,DWORD [-1924+EBP]
   763 00000694 83 78 1C 00                     	CMP	DWORD [28+EAX],0
   764 00000698 75 2F                           	JNE	L45
   765 0000069A 8B 95 FFFFF8E0                  	MOV	EDX,DWORD [-1824+EBP]
   766 000006A0 C7 85 FFFFF87C 00000000         	MOV	DWORD [-1924+EBP],0
   767 000006AA 8B 42 10                        	MOV	EAX,DWORD [16+EDX]
   768 000006AD 83 F8 01                        	CMP	EAX,1
   769 000006B0 74 17                           	JE	L45
   770 000006B2 8B 8D FFFFF8E0                  	MOV	ECX,DWORD [-1824+EBP]
   771 000006B8 8B 44 81 10                     	MOV	EAX,DWORD [16+ECX+EAX*4]
   772 000006BC 50                              	PUSH	EAX
   773 000006BD 89 85 FFFFF87C                  	MOV	DWORD [-1924+EBP],EAX
   774 000006C3 E8 00000787                     	CALL	_keywin_on
   775 000006C8 59                              	POP	ECX
   776 000006C9                                 L45:
   777 000006C9 8D 86 FFFFFF00                  	LEA	EAX,DWORD [-256+ESI]
   778 000006CF 3D 000000FF                     	CMP	EAX,255
   779 000006D4 0F 86 00000388                  	JBE	L114
   780 000006DA 8D 86 FFFFFE00                  	LEA	EAX,DWORD [-512+ESI]
   781 000006E0 3D 000000FF                     	CMP	EAX,255
   782 000006E5 0F 86 00000093                  	JBE	L115
   783 000006EB 8D 86 FFFFFD00                  	LEA	EAX,DWORD [-768+ESI]
   784 000006F1 3D 000000FF                     	CMP	EAX,255
   785 000006F6 76 6E                           	JBE	L116
   786 000006F8 8D 86 FFFFFC00                  	LEA	EAX,DWORD [-1024+ESI]
   787 000006FE 3D 000003E7                     	CMP	EAX,999
   788 00000703 76 43                           	JBE	L117
   789 00000705 8D 86 FFFFF818                  	LEA	EAX,DWORD [-2024+ESI]
   790 0000070B 3D 000000FF                     	CMP	EAX,255
   791 00000710 0F 87 FFFFFEF6                  	JA	L34
   792 00000716 6B C6 28                        	IMUL	EAX,ESI,40
   793 00000719 03 85 FFFFF8E0                  	ADD	EAX,DWORD [-1824+EBP]
   794 0000071F 68 0000A500                     	PUSH	42240
   795 00000724 FF B0 FFFEC7D4                  	PUSH	DWORD [-79916+EAX]
   796 0000072A 68 003C0000                     	PUSH	3932160
   797 0000072F 8D 98 FFFEC7D4                  	LEA	EBX,DWORD [-79916+EAX]
   798 00000735 E8 [00000000]                   	CALL	_memman_free_4k
   799 0000073A 53                              	PUSH	EBX
   800 0000073B E8 [00000000]                   	CALL	_sheet_free
   801 00000740 83 C4 10                        	ADD	ESP,16
   802 00000743 E9 FFFFFEC4                     	JMP	L34
   803 00000748                                 L117:
   804 00000748 69 F6 000000B0                  	IMUL	ESI,ESI,176
   805 0000074E 03 35 [00000000]                	ADD	ESI,DWORD [_taskctl]
   806 00000754 8D 86 FFFD4FF8                  	LEA	EAX,DWORD [-176136+ESI]
   807 0000075A 50                              	PUSH	EAX
   808 0000075B E8 00000842                     	CALL	_close_constask
   809 00000760                                 L107:
   810 00000760 58                              	POP	EAX
   811 00000761 E9 FFFFFEA6                     	JMP	L34
   812 00000766                                 L116:
   813 00000766 6B C6 28                        	IMUL	EAX,ESI,40
   814 00000769 8B 8D FFFFF8E0                  	MOV	ECX,DWORD [-1824+EBP]
   815 0000076F 8D 84 08 FFFF8C14               	LEA	EAX,DWORD [-29676+EAX+ECX*1]
   816 00000776 50                              	PUSH	EAX
   817 00000777 E8 00000866                     	CALL	_close_console
   818 0000077C EB E2                           	JMP	L107
   819 0000077E                                 L115:
   820 0000077E 89 F2                           	MOV	EDX,ESI
   821 00000780 0F B6 C2                        	MOVZX	EAX,DL
   822 00000783 50                              	PUSH	EAX
   823 00000784 8D 85 FFFFFCF4                  	LEA	EAX,DWORD [-780+EBP]
   824 0000078A 50                              	PUSH	EAX
   825 0000078B E8 [00000000]                   	CALL	_mouse_decode
   826 00000790 59                              	POP	ECX
   827 00000791 5B                              	POP	EBX
   828 00000792 85 C0                           	TEST	EAX,EAX
   829 00000794 0F 84 FFFFFE72                  	JE	L34
   830 0000079A 8B 8D FFFFFCFC                  	MOV	ECX,DWORD [-772+EBP]
   831 000007A0 8B BD FFFFFCF8                  	MOV	EDI,DWORD [-776+EBP]
   832 000007A6 01 8D FFFFF8D8                  	ADD	DWORD [-1832+EBP],ECX
   833 000007AC 01 BD FFFFF8DC                  	ADD	DWORD [-1828+EBP],EDI
   834 000007B2 0F 88 0000029B                  	JS	L118
   835 000007B8                                 L77:
   836 000007B8 83 BD FFFFF8D8 00               	CMP	DWORD [-1832+EBP],0
   837 000007BF 0F 88 0000027F                  	JS	L119
   838 000007C5                                 L78:
   839 000007C5 0F BF 05 00000FF4               	MOVSX	EAX,WORD [4084]
   840 000007CC 48                              	DEC	EAX
   841 000007CD 39 85 FFFFF8DC                  	CMP	DWORD [-1828+EBP],EAX
   842 000007D3 7E 06                           	JLE	L79
   843 000007D5 89 85 FFFFF8DC                  	MOV	DWORD [-1828+EBP],EAX
   844 000007DB                                 L79:
   845 000007DB 0F BF 05 00000FF6               	MOVSX	EAX,WORD [4086]
   846 000007E2 48                              	DEC	EAX
   847 000007E3 39 85 FFFFF8D8                  	CMP	DWORD [-1832+EBP],EAX
   848 000007E9 7E 06                           	JLE	L80
   849 000007EB 89 85 FFFFF8D8                  	MOV	DWORD [-1832+EBP],EAX
   850 000007F1                                 L80:
   851 000007F1 8B 85 FFFFF8DC                  	MOV	EAX,DWORD [-1828+EBP]
   852 000007F7 8B 95 FFFFF8D8                  	MOV	EDX,DWORD [-1832+EBP]
   853 000007FD 89 85 FFFFF8D4                  	MOV	DWORD [-1836+EBP],EAX
   854 00000803 89 95 FFFFF8D0                  	MOV	DWORD [-1840+EBP],EDX
   855 00000809 F7 85 FFFFFD00 00000001         	TEST	DWORD [-768+EBP],1
   856 00000813 75 43                           	JNE	L120
   857 00000815 C7 85 FFFFF8AC FFFFFFFF         	MOV	DWORD [-1876+EBP],-1
   858 0000081F 81 BD FFFFF8CC 7FFFFFFF         	CMP	DWORD [-1844+EBP],2147483647
   859 00000829 0F 84 FFFFFDDD                  	JE	L34
   860 0000082F                                 L108:
   861 0000082F FF B5 FFFFF8C8                  	PUSH	DWORD [-1848+EBP]
   862 00000835 FF B5 FFFFF8CC                  	PUSH	DWORD [-1844+EBP]
   863 0000083B FF B5 FFFFF8A0                  	PUSH	DWORD [-1888+EBP]
   864 00000841 E8 [00000000]                   	CALL	_sheet_slide
   865 00000846 C7 85 FFFFF8CC 7FFFFFFF         	MOV	DWORD [-1844+EBP],2147483647
   866 00000850                                 L109:
   867 00000850 83 C4 0C                        	ADD	ESP,12
   868 00000853 E9 FFFFFDB4                     	JMP	L34
   869 00000858                                 L120:
   870 00000858 83 BD FFFFF8AC 00               	CMP	DWORD [-1876+EBP],0
   871 0000085F 78 46                           	JS	L121
   872 00000861 8B 9D FFFFF8DC                  	MOV	EBX,DWORD [-1828+EBP]
   873 00000867 8B 85 FFFFF8A4                  	MOV	EAX,DWORD [-1884+EBP]
   874 0000086D 2B 9D FFFFF8AC                  	SUB	EBX,DWORD [-1876+EBP]
   875 00000873 8B B5 FFFFF8D8                  	MOV	ESI,DWORD [-1832+EBP]
   876 00000879 2B B5 FFFFF8A8                  	SUB	ESI,DWORD [-1880+EBP]
   877 0000087F 8B 95 FFFFF8D8                  	MOV	EDX,DWORD [-1832+EBP]
   878 00000885 8D 5C 03 02                     	LEA	EBX,DWORD [2+EBX+EAX*1]
   879 00000889 89 95 FFFFF8A8                  	MOV	DWORD [-1880+EBP],EDX
   880 0000088F 89 9D FFFFF8CC                  	MOV	DWORD [-1844+EBP],EBX
   881 00000895 01 B5 FFFFF8C8                  	ADD	DWORD [-1848+EBP],ESI
   882 0000089B 83 A5 FFFFF8CC FC               	AND	DWORD [-1844+EBP],-4
   883 000008A2 E9 FFFFFD65                     	JMP	L34
   884 000008A7                                 L121:
   885 000008A7 8B 8D FFFFF8E0                  	MOV	ECX,DWORD [-1824+EBP]
   886 000008AD 8B 49 10                        	MOV	ECX,DWORD [16+ECX]
   887 000008B0 89 8D FFFFF880                  	MOV	DWORD [-1920+EBP],ECX
   888 000008B6                                 L111:
   889 000008B6 49                              	DEC	ECX
   890 000008B7 85 C9                           	TEST	ECX,ECX
   891 000008B9 0F 8E FFFFFD4D                  	JLE	L34
   892 000008BF 8B BD FFFFF8E0                  	MOV	EDI,DWORD [-1824+EBP]
   893 000008C5 8B B5 FFFFF8D8                  	MOV	ESI,DWORD [-1832+EBP]
   894 000008CB 8B 9D FFFFF8DC                  	MOV	EBX,DWORD [-1828+EBP]
   895 000008D1 8B 7C 8F 14                     	MOV	EDI,DWORD [20+EDI+ECX*4]
   896 000008D5 89 BD FFFFF8A0                  	MOV	DWORD [-1888+EBP],EDI
   897 000008DB 2B 77 10                        	SUB	ESI,DWORD [16+EDI]
   898 000008DE 2B 5F 0C                        	SUB	EBX,DWORD [12+EDI]
   899 000008E1 78 D3                           	JS	L111
   900 000008E3 8B 47 04                        	MOV	EAX,DWORD [4+EDI]
   901 000008E6 39 C3                           	CMP	EBX,EAX
   902 000008E8 7D CC                           	JGE	L111
   903 000008EA 85 F6                           	TEST	ESI,ESI
   904 000008EC 78 C8                           	JS	L111
   905 000008EE 3B 77 08                        	CMP	ESI,DWORD [8+EDI]
   906 000008F1 7D C3                           	JGE	L111
   907 000008F3 0F AF C6                        	IMUL	EAX,ESI
   908 000008F6 8B 17                           	MOV	EDX,DWORD [EDI]
   909 000008F8 01 D8                           	ADD	EAX,EBX
   910 000008FA 0F B6 04 10                     	MOVZX	EAX,BYTE [EAX+EDX*1]
   911 000008FE 3B 47 14                        	CMP	EAX,DWORD [20+EDI]
   912 00000901 74 B3                           	JE	L111
   913 00000903 8B 85 FFFFF880                  	MOV	EAX,DWORD [-1920+EBP]
   914 00000909 48                              	DEC	EAX
   915 0000090A 50                              	PUSH	EAX
   916 0000090B 57                              	PUSH	EDI
   917 0000090C E8 [00000000]                   	CALL	_sheet_updown
   918 00000911 58                              	POP	EAX
   919 00000912 8B 85 FFFFF87C                  	MOV	EAX,DWORD [-1924+EBP]
   920 00000918 5A                              	POP	EDX
   921 00000919 39 C7                           	CMP	EDI,EAX
   922 0000091B 74 19                           	JE	L89
   923 0000091D 50                              	PUSH	EAX
   924 0000091E E8 000004FE                     	CALL	_keywin_off
   925 00000923 89 BD FFFFF87C                  	MOV	DWORD [-1924+EBP],EDI
   926 00000929 FF B5 FFFFF8A0                  	PUSH	DWORD [-1888+EBP]
   927 0000092F E8 0000051B                     	CALL	_keywin_on
   928 00000934 5A                              	POP	EDX
   929 00000935 59                              	POP	ECX
   930 00000936                                 L89:
   931 00000936 83 FB 02                        	CMP	EBX,2
   932 00000939 7E 44                           	JLE	L90
   933 0000093B 8B 95 FFFFF8A0                  	MOV	EDX,DWORD [-1888+EBP]
   934 00000941 8B 42 04                        	MOV	EAX,DWORD [4+EDX]
   935 00000944 83 E8 03                        	SUB	EAX,3
   936 00000947 39 C3                           	CMP	EBX,EAX
   937 00000949 7D 34                           	JGE	L90
   938 0000094B 83 FE 02                        	CMP	ESI,2
   939 0000094E 7E 2F                           	JLE	L90
   940 00000950 83 FE 14                        	CMP	ESI,20
   941 00000953 7F 2A                           	JG	L90
   942 00000955 8B 42 0C                        	MOV	EAX,DWORD [12+EDX]
   943 00000958 8B 8D FFFFF8DC                  	MOV	ECX,DWORD [-1828+EBP]
   944 0000095E 8B BD FFFFF8D8                  	MOV	EDI,DWORD [-1832+EBP]
   945 00000964 8B 52 10                        	MOV	EDX,DWORD [16+EDX]
   946 00000967 89 8D FFFFF8AC                  	MOV	DWORD [-1876+EBP],ECX
   947 0000096D 89 BD FFFFF8A8                  	MOV	DWORD [-1880+EBP],EDI
   948 00000973 89 85 FFFFF8A4                  	MOV	DWORD [-1884+EBP],EAX
   949 00000979 89 95 FFFFF8C8                  	MOV	DWORD [-1848+EBP],EDX
   950 0000097F                                 L90:
   951 0000097F 8B 8D FFFFF8A0                  	MOV	ECX,DWORD [-1888+EBP]
   952 00000985 8B 51 04                        	MOV	EDX,DWORD [4+ECX]
   953 00000988 8D 42 EB                        	LEA	EAX,DWORD [-21+EDX]
   954 0000098B 39 D8                           	CMP	EAX,EBX
   955 0000098D 0F 8F FFFFFC79                  	JG	L34
   956 00000993 8D 42 FB                        	LEA	EAX,DWORD [-5+EDX]
   957 00000996 39 C3                           	CMP	EBX,EAX
   958 00000998 0F 8D FFFFFC6E                  	JGE	L34
   959 0000099E 83 FE 04                        	CMP	ESI,4
   960 000009A1 0F 8E FFFFFC65                  	JLE	L34
   961 000009A7 83 FE 12                        	CMP	ESI,18
   962 000009AA 0F 8F FFFFFC5C                  	JG	L34
   963 000009B0 F6 41 1C 10                     	TEST	BYTE [28+ECX],16
   964 000009B4 74 42                           	JE	L122
   965 000009B6 8B BD FFFFF8A0                  	MOV	EDI,DWORD [-1888+EBP]
   966 000009BC 8B 5F 24                        	MOV	EBX,DWORD [36+EDI]
   967 000009BF 68 [00000139]                   	PUSH	LC3
   968 000009C4 FF B3 000000A4                  	PUSH	DWORD [164+EBX]
   969 000009CA E8 [00000000]                   	CALL	_cons_putstr0
   970 000009CF E8 [00000000]                   	CALL	_io_cli
   971 000009D4 8D 43 30                        	LEA	EAX,DWORD [48+EBX]
   972 000009D7 89 43 54                        	MOV	DWORD [84+EBX],EAX
   973 000009DA C7 43 4C [00000000]             	MOV	DWORD [76+EBX],_asm_end_app
   974 000009E1 E8 [00000000]                   	CALL	_io_sti
   975 000009E6 6A 00                           	PUSH	0
   976 000009E8 6A FF                           	PUSH	-1
   977 000009EA 53                              	PUSH	EBX
   978 000009EB E8 [00000000]                   	CALL	_task_run
   979 000009F0 83 C4 14                        	ADD	ESP,20
   980 000009F3 E9 FFFFFC14                     	JMP	L34
   981 000009F8                                 L122:
   982 000009F8 8B 59 24                        	MOV	EBX,DWORD [36+ECX]
   983 000009FB 6A FF                           	PUSH	-1
   984 000009FD 51                              	PUSH	ECX
   985 000009FE E8 [00000000]                   	CALL	_sheet_updown
   986 00000A03 FF B5 FFFFF87C                  	PUSH	DWORD [-1924+EBP]
   987 00000A09 E8 00000413                     	CALL	_keywin_off
   988 00000A0E 8B BD FFFFF8E0                  	MOV	EDI,DWORD [-1824+EBP]
   989 00000A14 8B 47 10                        	MOV	EAX,DWORD [16+EDI]
   990 00000A17 8B 44 87 10                     	MOV	EAX,DWORD [16+EDI+EAX*4]
   991 00000A1B 50                              	PUSH	EAX
   992 00000A1C 89 85 FFFFF87C                  	MOV	DWORD [-1924+EBP],EAX
   993 00000A22 E8 00000428                     	CALL	_keywin_on
   994 00000A27 E8 [00000000]                   	CALL	_io_cli
   995 00000A2C 8D 43 10                        	LEA	EAX,DWORD [16+EBX]
   996 00000A2F 6A 04                           	PUSH	4
   997 00000A31 50                              	PUSH	EAX
   998 00000A32 E8 [00000000]                   	CALL	_fifo32_put
   999 00000A37 E8 [00000000]                   	CALL	_io_sti
  1000 00000A3C 83 C4 18                        	ADD	ESP,24
  1001 00000A3F E9 FFFFFBC8                     	JMP	L34
  1002 00000A44                                 L119:
  1003 00000A44 C7 85 FFFFF8D8 00000000         	MOV	DWORD [-1832+EBP],0
  1004 00000A4E E9 FFFFFD72                     	JMP	L78
  1005 00000A53                                 L118:
  1006 00000A53 C7 85 FFFFF8DC 00000000         	MOV	DWORD [-1828+EBP],0
  1007 00000A5D E9 FFFFFD56                     	JMP	L77
  1008 00000A62                                 L114:
  1009 00000A62 81 FE 0000017F                  	CMP	ESI,383
  1010 00000A68 0F 8F 00000325                  	JG	L49
  1011 00000A6E 83 BD FFFFF8B8 00               	CMP	DWORD [-1864+EBP],0
  1012 00000A75 0F 85 0000030D                  	JNE	L50
  1013 00000A7B 8A 86 [FFFFFF15]                	MOV	AL,BYTE [_keytable0.0-256+ESI]
  1014 00000A81                                 L110:
  1015 00000A81 88 45 C4                        	MOV	BYTE [-60+EBP],AL
  1016 00000A84                                 L52:
  1017 00000A84 8A 55 C4                        	MOV	DL,BYTE [-60+EBP]
  1018 00000A87 8D 42 BF                        	LEA	EAX,DWORD [-65+EDX]
  1019 00000A8A 3C 19                           	CMP	AL,25
  1020 00000A8C 77 1D                           	JA	L53
  1021 00000A8E F7 85 FFFFF8B4 00000004         	TEST	DWORD [-1868+EBP],4
  1022 00000A98 0F 85 000002DB                  	JNE	L105
  1023 00000A9E 83 BD FFFFF8B8 00               	CMP	DWORD [-1864+EBP],0
  1024 00000AA5 0F 84 000002C3                  	JE	L55
  1025 00000AAB                                 L53:
  1026 00000AAB 8A 45 C4                        	MOV	AL,BYTE [-60+EBP]
  1027 00000AAE 84 C0                           	TEST	AL,AL
  1028 00000AB0 74 26                           	JE	L57
  1029 00000AB2 83 BD FFFFF87C 00               	CMP	DWORD [-1924+EBP],0
  1030 00000AB9 74 1D                           	JE	L57
  1031 00000ABB 0F BE C0                        	MOVSX	EAX,AL
  1032 00000ABE 05 00000100                     	ADD	EAX,256
  1033 00000AC3 8B BD FFFFF87C                  	MOV	EDI,DWORD [-1924+EBP]
  1034 00000AC9 50                              	PUSH	EAX
  1035 00000ACA 8B 47 24                        	MOV	EAX,DWORD [36+EDI]
  1036 00000ACD 83 C0 10                        	ADD	EAX,16
  1037 00000AD0 50                              	PUSH	EAX
  1038 00000AD1 E8 [00000000]                   	CALL	_fifo32_put
  1039 00000AD6 58                              	POP	EAX
  1040 00000AD7 5A                              	POP	EDX
  1041 00000AD8                                 L57:
  1042 00000AD8 81 FE 0000010F                  	CMP	ESI,271
  1043 00000ADE 0F 84 0000023F                  	JE	L123
  1044 00000AE4                                 L58:
  1045 00000AE4 81 FE 0000012A                  	CMP	ESI,298
  1046 00000AEA 0F 84 00000227                  	JE	L124
  1047 00000AF0                                 L60:
  1048 00000AF0 81 FE 00000136                  	CMP	ESI,310
  1049 00000AF6 0F 84 0000020F                  	JE	L125
  1050 00000AFC                                 L61:
  1051 00000AFC 81 FE 000001AA                  	CMP	ESI,426
  1052 00000B02 0F 84 000001F7                  	JE	L126
  1053 00000B08                                 L62:
  1054 00000B08 81 FE 000001B6                  	CMP	ESI,438
  1055 00000B0E 0F 84 000001DF                  	JE	L127
  1056 00000B14                                 L63:
  1057 00000B14 81 FE 0000013A                  	CMP	ESI,314
  1058 00000B1A 0F 84 000001AA                  	JE	L128
  1059 00000B20                                 L64:
  1060 00000B20 81 FE 00000145                  	CMP	ESI,325
  1061 00000B26 0F 84 00000175                  	JE	L129
  1062 00000B2C                                 L65:
  1063 00000B2C 81 FE 00000146                  	CMP	ESI,326
  1064 00000B32 0F 84 00000140                  	JE	L130
  1065 00000B38                                 L66:
  1066 00000B38 81 FE 0000013B                  	CMP	ESI,315
  1067 00000B3E 0F 84 000000C6                  	JE	L131
  1068 00000B44                                 L67:
  1069 00000B44 81 FE 0000013C                  	CMP	ESI,316
  1070 00000B4A 74 58                           	JE	L132
  1071 00000B4C                                 L69:
  1072 00000B4C 81 FE 00000157                  	CMP	ESI,343
  1073 00000B52 74 39                           	JE	L133
  1074 00000B54                                 L71:
  1075 00000B54 81 FE 000001FA                  	CMP	ESI,506
  1076 00000B5A 74 25                           	JE	L134
  1077 00000B5C                                 L72:
  1078 00000B5C 81 FE 000001FE                  	CMP	ESI,510
  1079 00000B62 0F 85 FFFFFAA4                  	JNE	L34
  1080 00000B68 E8 [00000000]                   	CALL	_wait_KBC_sendready
  1081 00000B6D FF B5 FFFFF8B0                  	PUSH	DWORD [-1872+EBP]
  1082 00000B73 6A 60                           	PUSH	96
  1083 00000B75 E8 [00000000]                   	CALL	_io_out8
  1084 00000B7A 5E                              	POP	ESI
  1085 00000B7B 5F                              	POP	EDI
  1086 00000B7C E9 FFFFFA8B                     	JMP	L34
  1087 00000B81                                 L134:
  1088 00000B81 C7 85 FFFFF8B0 FFFFFFFF         	MOV	DWORD [-1872+EBP],-1
  1089 00000B8B EB CF                           	JMP	L72
  1090 00000B8D                                 L133:
  1091 00000B8D 8B 8D FFFFF8E0                  	MOV	ECX,DWORD [-1824+EBP]
  1092 00000B93 8B 41 10                        	MOV	EAX,DWORD [16+ECX]
  1093 00000B96 48                              	DEC	EAX
  1094 00000B97 50                              	PUSH	EAX
  1095 00000B98 FF 71 18                        	PUSH	DWORD [24+ECX]
  1096 00000B9B E8 [00000000]                   	CALL	_sheet_updown
  1097 00000BA0 58                              	POP	EAX
  1098 00000BA1 5A                              	POP	EDX
  1099 00000BA2 EB B0                           	JMP	L71
  1100 00000BA4                                 L132:
  1101 00000BA4 83 BD FFFFF8B8 00               	CMP	DWORD [-1864+EBP],0
  1102 00000BAB 74 9F                           	JE	L69
  1103 00000BAD 83 BD FFFFF87C 00               	CMP	DWORD [-1924+EBP],0
  1104 00000BB4 74 0C                           	JE	L70
  1105 00000BB6 FF B5 FFFFF87C                  	PUSH	DWORD [-1924+EBP]
  1106 00000BBC E8 00000260                     	CALL	_keywin_off
  1107 00000BC1 59                              	POP	ECX
  1108 00000BC2                                 L70:
  1109 00000BC2 FF B5 FFFFF8C4                  	PUSH	DWORD [-1852+EBP]
  1110 00000BC8 FF B5 FFFFF8E0                  	PUSH	DWORD [-1824+EBP]
  1111 00000BCE E8 00000350                     	CALL	_open_console
  1112 00000BD3 6A 04                           	PUSH	4
  1113 00000BD5 6A 20                           	PUSH	32
  1114 00000BD7 50                              	PUSH	EAX
  1115 00000BD8 89 85 FFFFF87C                  	MOV	DWORD [-1924+EBP],EAX
  1116 00000BDE E8 [00000000]                   	CALL	_sheet_slide
  1117 00000BE3 8B 95 FFFFF8E0                  	MOV	EDX,DWORD [-1824+EBP]
  1118 00000BE9 FF 72 10                        	PUSH	DWORD [16+EDX]
  1119 00000BEC FF B5 FFFFF87C                  	PUSH	DWORD [-1924+EBP]
  1120 00000BF2 E8 [00000000]                   	CALL	_sheet_updown
  1121 00000BF7 FF B5 FFFFF87C                  	PUSH	DWORD [-1924+EBP]
  1122 00000BFD E8 0000024D                     	CALL	_keywin_on
  1123 00000C02 83 C4 20                        	ADD	ESP,32
  1124 00000C05 E9 FFFFFF42                     	JMP	L69
  1125 00000C0A                                 L131:
  1126 00000C0A 83 BD FFFFF8B8 00               	CMP	DWORD [-1864+EBP],0
  1127 00000C11 0F 84 FFFFFF2D                  	JE	L67
  1128 00000C17 83 BD FFFFF87C 00               	CMP	DWORD [-1924+EBP],0
  1129 00000C1E 0F 84 FFFFFF20                  	JE	L67
  1130 00000C24 8B 85 FFFFF87C                  	MOV	EAX,DWORD [-1924+EBP]
  1131 00000C2A 8B 58 24                        	MOV	EBX,DWORD [36+EAX]
  1132 00000C2D 85 DB                           	TEST	EBX,EBX
  1133 00000C2F 0F 84 FFFFFF0F                  	JE	L67
  1134 00000C35 83 7B 34 00                     	CMP	DWORD [52+EBX],0
  1135 00000C39 0F 84 FFFFFF05                  	JE	L67
  1136 00000C3F 68 [0000014A]                   	PUSH	LC2
  1137 00000C44 FF B3 000000A4                  	PUSH	DWORD [164+EBX]
  1138 00000C4A E8 [00000000]                   	CALL	_cons_putstr0
  1139 00000C4F E8 [00000000]                   	CALL	_io_cli
  1140 00000C54 8D 43 30                        	LEA	EAX,DWORD [48+EBX]
  1141 00000C57 89 43 54                        	MOV	DWORD [84+EBX],EAX
  1142 00000C5A C7 43 4C [00000000]             	MOV	DWORD [76+EBX],_asm_end_app
  1143 00000C61 E8 [00000000]                   	CALL	_io_sti
  1144 00000C66 6A 00                           	PUSH	0
  1145 00000C68 6A FF                           	PUSH	-1
  1146 00000C6A 53                              	PUSH	EBX
  1147 00000C6B E8 [00000000]                   	CALL	_task_run
  1148 00000C70 83 C4 14                        	ADD	ESP,20
  1149 00000C73 E9 FFFFFECC                     	JMP	L67
  1150 00000C78                                 L130:
  1151 00000C78 68 000000ED                     	PUSH	237
  1152 00000C7D 8D 5D 84                        	LEA	EBX,DWORD [-124+EBP]
  1153 00000C80 53                              	PUSH	EBX
  1154 00000C81 83 B5 FFFFF8B4 01               	XOR	DWORD [-1868+EBP],1
  1155 00000C88 E8 [00000000]                   	CALL	_fifo32_put
  1156 00000C8D FF B5 FFFFF8B4                  	PUSH	DWORD [-1868+EBP]
  1157 00000C93 53                              	PUSH	EBX
  1158 00000C94 E8 [00000000]                   	CALL	_fifo32_put
  1159 00000C99 83 C4 10                        	ADD	ESP,16
  1160 00000C9C E9 FFFFFE97                     	JMP	L66
  1161 00000CA1                                 L129:
  1162 00000CA1 68 000000ED                     	PUSH	237
  1163 00000CA6 8D 5D 84                        	LEA	EBX,DWORD [-124+EBP]
  1164 00000CA9 53                              	PUSH	EBX
  1165 00000CAA 83 B5 FFFFF8B4 02               	XOR	DWORD [-1868+EBP],2
  1166 00000CB1 E8 [00000000]                   	CALL	_fifo32_put
  1167 00000CB6 FF B5 FFFFF8B4                  	PUSH	DWORD [-1868+EBP]
  1168 00000CBC 53                              	PUSH	EBX
  1169 00000CBD E8 [00000000]                   	CALL	_fifo32_put
  1170 00000CC2 83 C4 10                        	ADD	ESP,16
  1171 00000CC5 E9 FFFFFE62                     	JMP	L65
  1172 00000CCA                                 L128:
  1173 00000CCA 68 000000ED                     	PUSH	237
  1174 00000CCF 8D 5D 84                        	LEA	EBX,DWORD [-124+EBP]
  1175 00000CD2 53                              	PUSH	EBX
  1176 00000CD3 83 B5 FFFFF8B4 04               	XOR	DWORD [-1868+EBP],4
  1177 00000CDA E8 [00000000]                   	CALL	_fifo32_put
  1178 00000CDF FF B5 FFFFF8B4                  	PUSH	DWORD [-1868+EBP]
  1179 00000CE5 53                              	PUSH	EBX
  1180 00000CE6 E8 [00000000]                   	CALL	_fifo32_put
  1181 00000CEB 83 C4 10                        	ADD	ESP,16
  1182 00000CEE E9 FFFFFE2D                     	JMP	L64
  1183 00000CF3                                 L127:
  1184 00000CF3 83 A5 FFFFF8B8 FD               	AND	DWORD [-1864+EBP],-3
  1185 00000CFA E9 FFFFFE15                     	JMP	L63
  1186 00000CFF                                 L126:
  1187 00000CFF 83 A5 FFFFF8B8 FE               	AND	DWORD [-1864+EBP],-2
  1188 00000D06 E9 FFFFFDFD                     	JMP	L62
  1189 00000D0B                                 L125:
  1190 00000D0B 83 8D FFFFF8B8 02               	OR	DWORD [-1864+EBP],2
  1191 00000D12 E9 FFFFFDE5                     	JMP	L61
  1192 00000D17                                 L124:
  1193 00000D17 83 8D FFFFF8B8 01               	OR	DWORD [-1864+EBP],1
  1194 00000D1E E9 FFFFFDCD                     	JMP	L60
  1195 00000D23                                 L123:
  1196 00000D23 83 BD FFFFF87C 00               	CMP	DWORD [-1924+EBP],0
  1197 00000D2A 0F 84 FFFFFDB4                  	JE	L58
  1198 00000D30 FF B5 FFFFF87C                  	PUSH	DWORD [-1924+EBP]
  1199 00000D36 E8 000000E6                     	CALL	_keywin_off
  1200 00000D3B 8B 85 FFFFF87C                  	MOV	EAX,DWORD [-1924+EBP]
  1201 00000D41 5F                              	POP	EDI
  1202 00000D42 8B 48 18                        	MOV	ECX,DWORD [24+EAX]
  1203 00000D45 49                              	DEC	ECX
  1204 00000D46 75 0A                           	JNE	L59
  1205 00000D48 8B 95 FFFFF8E0                  	MOV	EDX,DWORD [-1824+EBP]
  1206 00000D4E 8B 4A 10                        	MOV	ECX,DWORD [16+EDX]
  1207 00000D51 49                              	DEC	ECX
  1208 00000D52                                 L59:
  1209 00000D52 8B BD FFFFF8E0                  	MOV	EDI,DWORD [-1824+EBP]
  1210 00000D58 8B 4C 8F 14                     	MOV	ECX,DWORD [20+EDI+ECX*4]
  1211 00000D5C 51                              	PUSH	ECX
  1212 00000D5D 89 8D FFFFF87C                  	MOV	DWORD [-1924+EBP],ECX
  1213 00000D63 E8 000000E7                     	CALL	_keywin_on
  1214 00000D68 5B                              	POP	EBX
  1215 00000D69 E9 FFFFFD76                     	JMP	L58
  1216 00000D6E                                 L55:
  1217 00000D6E 8D 42 20                        	LEA	EAX,DWORD [32+EDX]
  1218 00000D71 88 45 C4                        	MOV	BYTE [-60+EBP],AL
  1219 00000D74 E9 FFFFFD32                     	JMP	L53
  1220 00000D79                                 L105:
  1221 00000D79 83 BD FFFFF8B8 00               	CMP	DWORD [-1864+EBP],0
  1222 00000D80 0F 84 FFFFFD25                  	JE	L53
  1223 00000D86 EB E6                           	JMP	L55
  1224 00000D88                                 L50:
  1225 00000D88 8A 86 [FFFFFF95]                	MOV	AL,BYTE [_keytable1.1-256+ESI]
  1226 00000D8E E9 FFFFFCEE                     	JMP	L110
  1227 00000D93                                 L49:
  1228 00000D93 C6 45 C4 00                     	MOV	BYTE [-60+EBP],0
  1229 00000D97 E9 FFFFFCE8                     	JMP	L52
  1230 00000D9C                                 L113:
  1231 00000D9C 83 BD FFFFF8D4 00               	CMP	DWORD [-1836+EBP],0
  1232 00000DA3 79 2B                           	JNS	L135
  1233 00000DA5 81 BD FFFFF8CC 7FFFFFFF         	CMP	DWORD [-1844+EBP],2147483647
  1234 00000DAF 75 15                           	JNE	L136
  1235 00000DB1 FF B5 FFFFF8BC                  	PUSH	DWORD [-1860+EBP]
  1236 00000DB7 E8 [00000000]                   	CALL	_task_sleep
  1237 00000DBC E8 [00000000]                   	CALL	_io_sti
  1238 00000DC1 E9 FFFFF99A                     	JMP	L107
  1239 00000DC6                                 L136:
  1240 00000DC6 E8 [00000000]                   	CALL	_io_sti
  1241 00000DCB E9 FFFFFA5F                     	JMP	L108
  1242 00000DD0                                 L135:
  1243 00000DD0 E8 [00000000]                   	CALL	_io_sti
  1244 00000DD5 FF B5 FFFFF8D0                  	PUSH	DWORD [-1840+EBP]
  1245 00000DDB FF B5 FFFFF8D4                  	PUSH	DWORD [-1836+EBP]
  1246 00000DE1 FF B5 FFFFF8C0                  	PUSH	DWORD [-1856+EBP]
  1247 00000DE7 E8 [00000000]                   	CALL	_sheet_slide
  1248 00000DEC C7 85 FFFFF8D4 FFFFFFFF         	MOV	DWORD [-1836+EBP],-1
  1249 00000DF6 E9 FFFFFA55                     	JMP	L109
  1250 00000DFB                                 L112:
  1251 00000DFB 53                              	PUSH	EBX
  1252 00000DFC E8 [00000000]                   	CALL	_fifo32_get
  1253 00000E01 89 85 FFFFF8B0                  	MOV	DWORD [-1872+EBP],EAX
  1254 00000E07 E8 [00000000]                   	CALL	_wait_KBC_sendready
  1255 00000E0C FF B5 FFFFF8B0                  	PUSH	DWORD [-1872+EBP]
  1256 00000E12 6A 60                           	PUSH	96
  1257 00000E14 E8 [00000000]                   	CALL	_io_out8
  1258 00000E19 83 C4 0C                        	ADD	ESP,12
  1259 00000E1C E9 FFFFF83F                     	JMP	L38
  1260 00000E21                                 	GLOBAL	_keywin_off
  1261 00000E21                                 _keywin_off:
  1262 00000E21 55                              	PUSH	EBP
  1263 00000E22 89 E5                           	MOV	EBP,ESP
  1264 00000E24 53                              	PUSH	EBX
  1265 00000E25 6A 00                           	PUSH	0
  1266 00000E27 8B 5D 08                        	MOV	EBX,DWORD [8+EBP]
  1267 00000E2A 53                              	PUSH	EBX
  1268 00000E2B E8 [00000000]                   	CALL	_change_wtitle8
  1269 00000E30 F6 43 1C 20                     	TEST	BYTE [28+EBX],32
  1270 00000E34 58                              	POP	EAX
  1271 00000E35 5A                              	POP	EDX
  1272 00000E36 75 05                           	JNE	L139
  1273 00000E38                                 L137:
  1274 00000E38 8B 5D FC                        	MOV	EBX,DWORD [-4+EBP]
  1275 00000E3B C9                              	LEAVE
  1276 00000E3C C3                              	RET
  1277 00000E3D                                 L139:
  1278 00000E3D 6A 03                           	PUSH	3
  1279 00000E3F 8B 43 24                        	MOV	EAX,DWORD [36+EBX]
  1280 00000E42 83 C0 10                        	ADD	EAX,16
  1281 00000E45 50                              	PUSH	EAX
  1282 00000E46 E8 [00000000]                   	CALL	_fifo32_put
  1283 00000E4B 59                              	POP	ECX
  1284 00000E4C 5B                              	POP	EBX
  1285 00000E4D EB E9                           	JMP	L137
  1286 00000E4F                                 	GLOBAL	_keywin_on
  1287 00000E4F                                 _keywin_on:
  1288 00000E4F 55                              	PUSH	EBP
  1289 00000E50 89 E5                           	MOV	EBP,ESP
  1290 00000E52 53                              	PUSH	EBX
  1291 00000E53 6A 01                           	PUSH	1
  1292 00000E55 8B 5D 08                        	MOV	EBX,DWORD [8+EBP]
  1293 00000E58 53                              	PUSH	EBX
  1294 00000E59 E8 [00000000]                   	CALL	_change_wtitle8
  1295 00000E5E F6 43 1C 20                     	TEST	BYTE [28+EBX],32
  1296 00000E62 58                              	POP	EAX
  1297 00000E63 5A                              	POP	EDX
  1298 00000E64 75 05                           	JNE	L142
  1299 00000E66                                 L140:
  1300 00000E66 8B 5D FC                        	MOV	EBX,DWORD [-4+EBP]
  1301 00000E69 C9                              	LEAVE
  1302 00000E6A C3                              	RET
  1303 00000E6B                                 L142:
  1304 00000E6B 6A 02                           	PUSH	2
  1305 00000E6D 8B 43 24                        	MOV	EAX,DWORD [36+EBX]
  1306 00000E70 83 C0 10                        	ADD	EAX,16
  1307 00000E73 50                              	PUSH	EAX
  1308 00000E74 E8 [00000000]                   	CALL	_fifo32_put
  1309 00000E79 59                              	POP	ECX
  1310 00000E7A 5B                              	POP	EBX
  1311 00000E7B EB E9                           	JMP	L140
  1312 00000E7D                                 	GLOBAL	_open_constask
  1313 00000E7D                                 _open_constask:
  1314 00000E7D 55                              	PUSH	EBP
  1315 00000E7E 89 E5                           	MOV	EBP,ESP
  1316 00000E80 56                              	PUSH	ESI
  1317 00000E81 53                              	PUSH	EBX
  1318 00000E82 E8 [00000000]                   	CALL	_task_alloc
  1319 00000E87 68 00000200                     	PUSH	512
  1320 00000E8C 68 003C0000                     	PUSH	3932160
  1321 00000E91 89 C3                           	MOV	EBX,EAX
  1322 00000E93 E8 [00000000]                   	CALL	_memman_alloc_4k
  1323 00000E98 68 00010000                     	PUSH	65536
  1324 00000E9D 68 003C0000                     	PUSH	3932160
  1325 00000EA2 89 C6                           	MOV	ESI,EAX
  1326 00000EA4 E8 [00000000]                   	CALL	_memman_alloc_4k
  1327 00000EA9 8B 55 08                        	MOV	EDX,DWORD [8+EBP]
  1328 00000EAC C7 43 4C [00000000]             	MOV	DWORD [76+EBX],_console_task
  1329 00000EB3 89 83 000000AC                  	MOV	DWORD [172+EBX],EAX
  1330 00000EB9 05 0000FFF4                     	ADD	EAX,65524
  1331 00000EBE 89 43 64                        	MOV	DWORD [100+EBX],EAX
  1332 00000EC1 C7 43 74 00000008               	MOV	DWORD [116+EBX],8
  1333 00000EC8 C7 43 78 00000010               	MOV	DWORD [120+EBX],16
  1334 00000ECF C7 43 7C 00000008               	MOV	DWORD [124+EBX],8
  1335 00000ED6 C7 83 00000080 00000008         	MOV	DWORD [128+EBX],8
  1336 00000EE0 C7 83 00000084 00000008         	MOV	DWORD [132+EBX],8
  1337 00000EEA C7 83 00000088 00000008         	MOV	DWORD [136+EBX],8
  1338 00000EF4 89 50 04                        	MOV	DWORD [4+EAX],EDX
  1339 00000EF7 8B 53 64                        	MOV	EDX,DWORD [100+EBX]
  1340 00000EFA 8B 45 0C                        	MOV	EAX,DWORD [12+EBP]
  1341 00000EFD 89 42 08                        	MOV	DWORD [8+EDX],EAX
  1342 00000F00 6A 02                           	PUSH	2
  1343 00000F02 6A 02                           	PUSH	2
  1344 00000F04 53                              	PUSH	EBX
  1345 00000F05 E8 [00000000]                   	CALL	_task_run
  1346 00000F0A 8D 43 10                        	LEA	EAX,DWORD [16+EBX]
  1347 00000F0D 53                              	PUSH	EBX
  1348 00000F0E 56                              	PUSH	ESI
  1349 00000F0F 68 00000080                     	PUSH	128
  1350 00000F14 50                              	PUSH	EAX
  1351 00000F15 E8 [00000000]                   	CALL	_fifo32_init
  1352 00000F1A 8D 65 F8                        	LEA	ESP,DWORD [-8+EBP]
  1353 00000F1D 89 D8                           	MOV	EAX,EBX
  1354 00000F1F 5B                              	POP	EBX
  1355 00000F20 5E                              	POP	ESI
  1356 00000F21 5D                              	POP	EBP
  1357 00000F22 C3                              	RET
  1358                                          [SECTION .data]
  1359 00000159                                 LC4:
  1360 00000159 63 6F 6E 73 6F 6C 65 00         	DB	"console",0x00
  1361                                          [SECTION .text]
  1362 00000F23                                 	GLOBAL	_open_console
  1363 00000F23                                 _open_console:
  1364 00000F23 55                              	PUSH	EBP
  1365 00000F24 89 E5                           	MOV	EBP,ESP
  1366 00000F26 56                              	PUSH	ESI
  1367 00000F27 53                              	PUSH	EBX
  1368 00000F28 FF 75 08                        	PUSH	DWORD [8+EBP]
  1369 00000F2B E8 [00000000]                   	CALL	_sheet_alloc
  1370 00000F30 68 0000A500                     	PUSH	42240
  1371 00000F35 68 003C0000                     	PUSH	3932160
  1372 00000F3A 89 C3                           	MOV	EBX,EAX
  1373 00000F3C E8 [00000000]                   	CALL	_memman_alloc_4k
  1374 00000F41 6A FF                           	PUSH	-1
  1375 00000F43 68 000000A5                     	PUSH	165
  1376 00000F48 89 C6                           	MOV	ESI,EAX
  1377 00000F4A 68 00000100                     	PUSH	256
  1378 00000F4F 50                              	PUSH	EAX
  1379 00000F50 53                              	PUSH	EBX
  1380 00000F51 E8 [00000000]                   	CALL	_sheet_setbuf
  1381 00000F56 83 C4 20                        	ADD	ESP,32
  1382 00000F59 6A 00                           	PUSH	0
  1383 00000F5B 68 [00000159]                   	PUSH	LC4
  1384 00000F60 68 000000A5                     	PUSH	165
  1385 00000F65 68 00000100                     	PUSH	256
  1386 00000F6A 56                              	PUSH	ESI
  1387 00000F6B E8 [00000000]                   	CALL	_make_window8
  1388 00000F70 6A 00                           	PUSH	0
  1389 00000F72 68 00000080                     	PUSH	128
  1390 00000F77 68 000000F0                     	PUSH	240
  1391 00000F7C 6A 1C                           	PUSH	28
  1392 00000F7E 6A 08                           	PUSH	8
  1393 00000F80 53                              	PUSH	EBX
  1394 00000F81 E8 [00000000]                   	CALL	_make_textbox8
  1395 00000F86 83 C4 2C                        	ADD	ESP,44
  1396 00000F89 FF 75 0C                        	PUSH	DWORD [12+EBP]
  1397 00000F8C 53                              	PUSH	EBX
  1398 00000F8D E8 FFFFFEEB                     	CALL	_open_constask
  1399 00000F92 83 4B 1C 20                     	OR	DWORD [28+EBX],32
  1400 00000F96 89 43 24                        	MOV	DWORD [36+EBX],EAX
  1401 00000F99 8D 65 F8                        	LEA	ESP,DWORD [-8+EBP]
  1402 00000F9C 89 D8                           	MOV	EAX,EBX
  1403 00000F9E 5B                              	POP	EBX
  1404 00000F9F 5E                              	POP	ESI
  1405 00000FA0 5D                              	POP	EBP
  1406 00000FA1 C3                              	RET
  1407 00000FA2                                 	GLOBAL	_close_constask
  1408 00000FA2                                 _close_constask:
  1409 00000FA2 55                              	PUSH	EBP
  1410 00000FA3 89 E5                           	MOV	EBP,ESP
  1411 00000FA5 53                              	PUSH	EBX
  1412 00000FA6 8B 5D 08                        	MOV	EBX,DWORD [8+EBP]
  1413 00000FA9 53                              	PUSH	EBX
  1414 00000FAA E8 [00000000]                   	CALL	_task_sleep
  1415 00000FAF 68 00010000                     	PUSH	65536
  1416 00000FB4 FF B3 000000AC                  	PUSH	DWORD [172+EBX]
  1417 00000FBA 68 003C0000                     	PUSH	3932160
  1418 00000FBF E8 [00000000]                   	CALL	_memman_free_4k
  1419 00000FC4 68 00000200                     	PUSH	512
  1420 00000FC9 FF 73 10                        	PUSH	DWORD [16+EBX]
  1421 00000FCC 68 003C0000                     	PUSH	3932160
  1422 00000FD1 E8 [00000000]                   	CALL	_memman_free_4k
  1423 00000FD6 C7 43 04 00000000               	MOV	DWORD [4+EBX],0
  1424 00000FDD 8B 5D FC                        	MOV	EBX,DWORD [-4+EBP]
  1425 00000FE0 C9                              	LEAVE
  1426 00000FE1 C3                              	RET
  1427 00000FE2                                 	GLOBAL	_close_console
  1428 00000FE2                                 _close_console:
  1429 00000FE2 55                              	PUSH	EBP
  1430 00000FE3 89 E5                           	MOV	EBP,ESP
  1431 00000FE5 56                              	PUSH	ESI
  1432 00000FE6 53                              	PUSH	EBX
  1433 00000FE7 8B 5D 08                        	MOV	EBX,DWORD [8+EBP]
  1434 00000FEA 8B 73 24                        	MOV	ESI,DWORD [36+EBX]
  1435 00000FED 68 0000A500                     	PUSH	42240
  1436 00000FF2 FF 33                           	PUSH	DWORD [EBX]
  1437 00000FF4 68 003C0000                     	PUSH	3932160
  1438 00000FF9 E8 [00000000]                   	CALL	_memman_free_4k
  1439 00000FFE 53                              	PUSH	EBX
  1440 00000FFF E8 [00000000]                   	CALL	_sheet_free
  1441 00001004 89 75 08                        	MOV	DWORD [8+EBP],ESI
  1442 00001007 83 C4 10                        	ADD	ESP,16
  1443 0000100A 8D 65 F8                        	LEA	ESP,DWORD [-8+EBP]
  1444 0000100D 5B                              	POP	EBX
  1445 0000100E 5E                              	POP	ESI
  1446 0000100F 5D                              	POP	EBP
  1447 00001010 EB 90                           	JMP	_close_constask
